
stm32f407_drivers.elf:     file format elf32-littlearm

Sections:
Idx Name          Size      VMA       LMA       File off  Algn
  0 .isr_vector   000001a8  08000000  08000000  00010000  2**0
                  CONTENTS, ALLOC, LOAD, READONLY, DATA
  1 .text         000017fc  080001a8  080001a8  000101a8  2**3
                  CONTENTS, ALLOC, LOAD, READONLY, CODE
  2 .rodata       00000000  080019a4  080019a4  00020010  2**0
                  CONTENTS, ALLOC, LOAD, DATA
  3 .ARM.extab    00000000  080019a4  080019a4  00020010  2**0
                  CONTENTS
  4 .ARM          00000000  080019a4  080019a4  00020010  2**0
                  CONTENTS
  5 .preinit_array 00000000  080019a4  080019a4  00020010  2**0
                  CONTENTS, ALLOC, LOAD, DATA
  6 .init_array   00000004  080019a4  080019a4  000119a4  2**2
                  CONTENTS, ALLOC, LOAD, DATA
  7 .fini_array   00000004  080019a8  080019a8  000119a8  2**2
                  CONTENTS, ALLOC, LOAD, DATA
  8 .data         00000010  20000000  080019ac  00020000  2**2
                  CONTENTS, ALLOC, LOAD, DATA
  9 .ccmram       00000000  10000000  10000000  00020010  2**0
                  CONTENTS
 10 .bss          00000024  20000010  20000010  00020010  2**2
                  ALLOC
 11 ._user_heap_stack 00000604  20000034  20000034  00020010  2**0
                  ALLOC
 12 .ARM.attributes 0000002a  00000000  00000000  00020010  2**0
                  CONTENTS, READONLY
 13 .debug_info   000021e5  00000000  00000000  0002003a  2**0
                  CONTENTS, READONLY, DEBUGGING, OCTETS
 14 .debug_abbrev 00000596  00000000  00000000  0002221f  2**0
                  CONTENTS, READONLY, DEBUGGING, OCTETS
 15 .debug_aranges 00000160  00000000  00000000  000227b8  2**3
                  CONTENTS, READONLY, DEBUGGING, OCTETS
 16 .debug_ranges 00000128  00000000  00000000  00022918  2**3
                  CONTENTS, READONLY, DEBUGGING, OCTETS
 17 .debug_macro  000026b0  00000000  00000000  00022a40  2**0
                  CONTENTS, READONLY, DEBUGGING, OCTETS
 18 .debug_line   00001c46  00000000  00000000  000250f0  2**0
                  CONTENTS, READONLY, DEBUGGING, OCTETS
 19 .debug_str    0000ab78  00000000  00000000  00026d36  2**0
                  CONTENTS, READONLY, DEBUGGING, OCTETS
 20 .comment      00000053  00000000  00000000  000318ae  2**0
                  CONTENTS, READONLY
 21 .debug_frame  000005d0  00000000  00000000  00031904  2**2
                  CONTENTS, READONLY, DEBUGGING, OCTETS

Disassembly of section .text:

080001a8 <__do_global_dtors_aux>:
 80001a8:	b510      	push	{r4, lr}
 80001aa:	4c05      	ldr	r4, [pc, #20]	; (80001c0 <__do_global_dtors_aux+0x18>)
 80001ac:	7823      	ldrb	r3, [r4, #0]
 80001ae:	b933      	cbnz	r3, 80001be <__do_global_dtors_aux+0x16>
 80001b0:	4b04      	ldr	r3, [pc, #16]	; (80001c4 <__do_global_dtors_aux+0x1c>)
 80001b2:	b113      	cbz	r3, 80001ba <__do_global_dtors_aux+0x12>
 80001b4:	4804      	ldr	r0, [pc, #16]	; (80001c8 <__do_global_dtors_aux+0x20>)
 80001b6:	f3af 8000 	nop.w
 80001ba:	2301      	movs	r3, #1
 80001bc:	7023      	strb	r3, [r4, #0]
 80001be:	bd10      	pop	{r4, pc}
 80001c0:	20000010 	.word	0x20000010
 80001c4:	00000000 	.word	0x00000000
 80001c8:	0800198c 	.word	0x0800198c

080001cc <frame_dummy>:
 80001cc:	b508      	push	{r3, lr}
 80001ce:	4b03      	ldr	r3, [pc, #12]	; (80001dc <frame_dummy+0x10>)
 80001d0:	b11b      	cbz	r3, 80001da <frame_dummy+0xe>
 80001d2:	4903      	ldr	r1, [pc, #12]	; (80001e0 <frame_dummy+0x14>)
 80001d4:	4803      	ldr	r0, [pc, #12]	; (80001e4 <frame_dummy+0x18>)
 80001d6:	f3af 8000 	nop.w
 80001da:	bd08      	pop	{r3, pc}
 80001dc:	00000000 	.word	0x00000000
 80001e0:	20000014 	.word	0x20000014
 80001e4:	0800198c 	.word	0x0800198c

080001e8 <__aeabi_dmul>:
 80001e8:	b570      	push	{r4, r5, r6, lr}
 80001ea:	f04f 0cff 	mov.w	ip, #255	; 0xff
 80001ee:	f44c 6ce0 	orr.w	ip, ip, #1792	; 0x700
 80001f2:	ea1c 5411 	ands.w	r4, ip, r1, lsr #20
 80001f6:	bf1d      	ittte	ne
 80001f8:	ea1c 5513 	andsne.w	r5, ip, r3, lsr #20
 80001fc:	ea94 0f0c 	teqne	r4, ip
 8000200:	ea95 0f0c 	teqne	r5, ip
 8000204:	f000 f8de 	bleq	80003c4 <__aeabi_dmul+0x1dc>
 8000208:	442c      	add	r4, r5
 800020a:	ea81 0603 	eor.w	r6, r1, r3
 800020e:	ea21 514c 	bic.w	r1, r1, ip, lsl #21
 8000212:	ea23 534c 	bic.w	r3, r3, ip, lsl #21
 8000216:	ea50 3501 	orrs.w	r5, r0, r1, lsl #12
 800021a:	bf18      	it	ne
 800021c:	ea52 3503 	orrsne.w	r5, r2, r3, lsl #12
 8000220:	f441 1180 	orr.w	r1, r1, #1048576	; 0x100000
 8000224:	f443 1380 	orr.w	r3, r3, #1048576	; 0x100000
 8000228:	d038      	beq.n	800029c <__aeabi_dmul+0xb4>
 800022a:	fba0 ce02 	umull	ip, lr, r0, r2
 800022e:	f04f 0500 	mov.w	r5, #0
 8000232:	fbe1 e502 	umlal	lr, r5, r1, r2
 8000236:	f006 4200 	and.w	r2, r6, #2147483648	; 0x80000000
 800023a:	fbe0 e503 	umlal	lr, r5, r0, r3
 800023e:	f04f 0600 	mov.w	r6, #0
 8000242:	fbe1 5603 	umlal	r5, r6, r1, r3
 8000246:	f09c 0f00 	teq	ip, #0
 800024a:	bf18      	it	ne
 800024c:	f04e 0e01 	orrne.w	lr, lr, #1
 8000250:	f1a4 04ff 	sub.w	r4, r4, #255	; 0xff
 8000254:	f5b6 7f00 	cmp.w	r6, #512	; 0x200
 8000258:	f564 7440 	sbc.w	r4, r4, #768	; 0x300
 800025c:	d204      	bcs.n	8000268 <__aeabi_dmul+0x80>
 800025e:	ea5f 0e4e 	movs.w	lr, lr, lsl #1
 8000262:	416d      	adcs	r5, r5
 8000264:	eb46 0606 	adc.w	r6, r6, r6
 8000268:	ea42 21c6 	orr.w	r1, r2, r6, lsl #11
 800026c:	ea41 5155 	orr.w	r1, r1, r5, lsr #21
 8000270:	ea4f 20c5 	mov.w	r0, r5, lsl #11
 8000274:	ea40 505e 	orr.w	r0, r0, lr, lsr #21
 8000278:	ea4f 2ece 	mov.w	lr, lr, lsl #11
 800027c:	f1b4 0cfd 	subs.w	ip, r4, #253	; 0xfd
 8000280:	bf88      	it	hi
 8000282:	f5bc 6fe0 	cmphi.w	ip, #1792	; 0x700
 8000286:	d81e      	bhi.n	80002c6 <__aeabi_dmul+0xde>
 8000288:	f1be 4f00 	cmp.w	lr, #2147483648	; 0x80000000
 800028c:	bf08      	it	eq
 800028e:	ea5f 0e50 	movseq.w	lr, r0, lsr #1
 8000292:	f150 0000 	adcs.w	r0, r0, #0
 8000296:	eb41 5104 	adc.w	r1, r1, r4, lsl #20
 800029a:	bd70      	pop	{r4, r5, r6, pc}
 800029c:	f006 4600 	and.w	r6, r6, #2147483648	; 0x80000000
 80002a0:	ea46 0101 	orr.w	r1, r6, r1
 80002a4:	ea40 0002 	orr.w	r0, r0, r2
 80002a8:	ea81 0103 	eor.w	r1, r1, r3
 80002ac:	ebb4 045c 	subs.w	r4, r4, ip, lsr #1
 80002b0:	bfc2      	ittt	gt
 80002b2:	ebd4 050c 	rsbsgt	r5, r4, ip
 80002b6:	ea41 5104 	orrgt.w	r1, r1, r4, lsl #20
 80002ba:	bd70      	popgt	{r4, r5, r6, pc}
 80002bc:	f441 1180 	orr.w	r1, r1, #1048576	; 0x100000
 80002c0:	f04f 0e00 	mov.w	lr, #0
 80002c4:	3c01      	subs	r4, #1
 80002c6:	f300 80ab 	bgt.w	8000420 <__aeabi_dmul+0x238>
 80002ca:	f114 0f36 	cmn.w	r4, #54	; 0x36
 80002ce:	bfde      	ittt	le
 80002d0:	2000      	movle	r0, #0
 80002d2:	f001 4100 	andle.w	r1, r1, #2147483648	; 0x80000000
 80002d6:	bd70      	pople	{r4, r5, r6, pc}
 80002d8:	f1c4 0400 	rsb	r4, r4, #0
 80002dc:	3c20      	subs	r4, #32
 80002de:	da35      	bge.n	800034c <__aeabi_dmul+0x164>
 80002e0:	340c      	adds	r4, #12
 80002e2:	dc1b      	bgt.n	800031c <__aeabi_dmul+0x134>
 80002e4:	f104 0414 	add.w	r4, r4, #20
 80002e8:	f1c4 0520 	rsb	r5, r4, #32
 80002ec:	fa00 f305 	lsl.w	r3, r0, r5
 80002f0:	fa20 f004 	lsr.w	r0, r0, r4
 80002f4:	fa01 f205 	lsl.w	r2, r1, r5
 80002f8:	ea40 0002 	orr.w	r0, r0, r2
 80002fc:	f001 4200 	and.w	r2, r1, #2147483648	; 0x80000000
 8000300:	f021 4100 	bic.w	r1, r1, #2147483648	; 0x80000000
 8000304:	eb10 70d3 	adds.w	r0, r0, r3, lsr #31
 8000308:	fa21 f604 	lsr.w	r6, r1, r4
 800030c:	eb42 0106 	adc.w	r1, r2, r6
 8000310:	ea5e 0e43 	orrs.w	lr, lr, r3, lsl #1
 8000314:	bf08      	it	eq
 8000316:	ea20 70d3 	biceq.w	r0, r0, r3, lsr #31
 800031a:	bd70      	pop	{r4, r5, r6, pc}
 800031c:	f1c4 040c 	rsb	r4, r4, #12
 8000320:	f1c4 0520 	rsb	r5, r4, #32
 8000324:	fa00 f304 	lsl.w	r3, r0, r4
 8000328:	fa20 f005 	lsr.w	r0, r0, r5
 800032c:	fa01 f204 	lsl.w	r2, r1, r4
 8000330:	ea40 0002 	orr.w	r0, r0, r2
 8000334:	f001 4100 	and.w	r1, r1, #2147483648	; 0x80000000
 8000338:	eb10 70d3 	adds.w	r0, r0, r3, lsr #31
 800033c:	f141 0100 	adc.w	r1, r1, #0
 8000340:	ea5e 0e43 	orrs.w	lr, lr, r3, lsl #1
 8000344:	bf08      	it	eq
 8000346:	ea20 70d3 	biceq.w	r0, r0, r3, lsr #31
 800034a:	bd70      	pop	{r4, r5, r6, pc}
 800034c:	f1c4 0520 	rsb	r5, r4, #32
 8000350:	fa00 f205 	lsl.w	r2, r0, r5
 8000354:	ea4e 0e02 	orr.w	lr, lr, r2
 8000358:	fa20 f304 	lsr.w	r3, r0, r4
 800035c:	fa01 f205 	lsl.w	r2, r1, r5
 8000360:	ea43 0302 	orr.w	r3, r3, r2
 8000364:	fa21 f004 	lsr.w	r0, r1, r4
 8000368:	f001 4100 	and.w	r1, r1, #2147483648	; 0x80000000
 800036c:	fa21 f204 	lsr.w	r2, r1, r4
 8000370:	ea20 0002 	bic.w	r0, r0, r2
 8000374:	eb00 70d3 	add.w	r0, r0, r3, lsr #31
 8000378:	ea5e 0e43 	orrs.w	lr, lr, r3, lsl #1
 800037c:	bf08      	it	eq
 800037e:	ea20 70d3 	biceq.w	r0, r0, r3, lsr #31
 8000382:	bd70      	pop	{r4, r5, r6, pc}
 8000384:	f094 0f00 	teq	r4, #0
 8000388:	d10f      	bne.n	80003aa <__aeabi_dmul+0x1c2>
 800038a:	f001 4600 	and.w	r6, r1, #2147483648	; 0x80000000
 800038e:	0040      	lsls	r0, r0, #1
 8000390:	eb41 0101 	adc.w	r1, r1, r1
 8000394:	f411 1f80 	tst.w	r1, #1048576	; 0x100000
 8000398:	bf08      	it	eq
 800039a:	3c01      	subeq	r4, #1
 800039c:	d0f7      	beq.n	800038e <__aeabi_dmul+0x1a6>
 800039e:	ea41 0106 	orr.w	r1, r1, r6
 80003a2:	f095 0f00 	teq	r5, #0
 80003a6:	bf18      	it	ne
 80003a8:	4770      	bxne	lr
 80003aa:	f003 4600 	and.w	r6, r3, #2147483648	; 0x80000000
 80003ae:	0052      	lsls	r2, r2, #1
 80003b0:	eb43 0303 	adc.w	r3, r3, r3
 80003b4:	f413 1f80 	tst.w	r3, #1048576	; 0x100000
 80003b8:	bf08      	it	eq
 80003ba:	3d01      	subeq	r5, #1
 80003bc:	d0f7      	beq.n	80003ae <__aeabi_dmul+0x1c6>
 80003be:	ea43 0306 	orr.w	r3, r3, r6
 80003c2:	4770      	bx	lr
 80003c4:	ea94 0f0c 	teq	r4, ip
 80003c8:	ea0c 5513 	and.w	r5, ip, r3, lsr #20
 80003cc:	bf18      	it	ne
 80003ce:	ea95 0f0c 	teqne	r5, ip
 80003d2:	d00c      	beq.n	80003ee <__aeabi_dmul+0x206>
 80003d4:	ea50 0641 	orrs.w	r6, r0, r1, lsl #1
 80003d8:	bf18      	it	ne
 80003da:	ea52 0643 	orrsne.w	r6, r2, r3, lsl #1
 80003de:	d1d1      	bne.n	8000384 <__aeabi_dmul+0x19c>
 80003e0:	ea81 0103 	eor.w	r1, r1, r3
 80003e4:	f001 4100 	and.w	r1, r1, #2147483648	; 0x80000000
 80003e8:	f04f 0000 	mov.w	r0, #0
 80003ec:	bd70      	pop	{r4, r5, r6, pc}
 80003ee:	ea50 0641 	orrs.w	r6, r0, r1, lsl #1
 80003f2:	bf06      	itte	eq
 80003f4:	4610      	moveq	r0, r2
 80003f6:	4619      	moveq	r1, r3
 80003f8:	ea52 0643 	orrsne.w	r6, r2, r3, lsl #1
 80003fc:	d019      	beq.n	8000432 <__aeabi_dmul+0x24a>
 80003fe:	ea94 0f0c 	teq	r4, ip
 8000402:	d102      	bne.n	800040a <__aeabi_dmul+0x222>
 8000404:	ea50 3601 	orrs.w	r6, r0, r1, lsl #12
 8000408:	d113      	bne.n	8000432 <__aeabi_dmul+0x24a>
 800040a:	ea95 0f0c 	teq	r5, ip
 800040e:	d105      	bne.n	800041c <__aeabi_dmul+0x234>
 8000410:	ea52 3603 	orrs.w	r6, r2, r3, lsl #12
 8000414:	bf1c      	itt	ne
 8000416:	4610      	movne	r0, r2
 8000418:	4619      	movne	r1, r3
 800041a:	d10a      	bne.n	8000432 <__aeabi_dmul+0x24a>
 800041c:	ea81 0103 	eor.w	r1, r1, r3
 8000420:	f001 4100 	and.w	r1, r1, #2147483648	; 0x80000000
 8000424:	f041 41fe 	orr.w	r1, r1, #2130706432	; 0x7f000000
 8000428:	f441 0170 	orr.w	r1, r1, #15728640	; 0xf00000
 800042c:	f04f 0000 	mov.w	r0, #0
 8000430:	bd70      	pop	{r4, r5, r6, pc}
 8000432:	f041 41fe 	orr.w	r1, r1, #2130706432	; 0x7f000000
 8000436:	f441 0178 	orr.w	r1, r1, #16252928	; 0xf80000
 800043a:	bd70      	pop	{r4, r5, r6, pc}

0800043c <__aeabi_drsub>:
 800043c:	f081 4100 	eor.w	r1, r1, #2147483648	; 0x80000000
 8000440:	e002      	b.n	8000448 <__adddf3>
 8000442:	bf00      	nop

08000444 <__aeabi_dsub>:
 8000444:	f083 4300 	eor.w	r3, r3, #2147483648	; 0x80000000

08000448 <__adddf3>:
 8000448:	b530      	push	{r4, r5, lr}
 800044a:	ea4f 0441 	mov.w	r4, r1, lsl #1
 800044e:	ea4f 0543 	mov.w	r5, r3, lsl #1
 8000452:	ea94 0f05 	teq	r4, r5
 8000456:	bf08      	it	eq
 8000458:	ea90 0f02 	teqeq	r0, r2
 800045c:	bf1f      	itttt	ne
 800045e:	ea54 0c00 	orrsne.w	ip, r4, r0
 8000462:	ea55 0c02 	orrsne.w	ip, r5, r2
 8000466:	ea7f 5c64 	mvnsne.w	ip, r4, asr #21
 800046a:	ea7f 5c65 	mvnsne.w	ip, r5, asr #21
 800046e:	f000 80e2 	beq.w	8000636 <__adddf3+0x1ee>
 8000472:	ea4f 5454 	mov.w	r4, r4, lsr #21
 8000476:	ebd4 5555 	rsbs	r5, r4, r5, lsr #21
 800047a:	bfb8      	it	lt
 800047c:	426d      	neglt	r5, r5
 800047e:	dd0c      	ble.n	800049a <__adddf3+0x52>
 8000480:	442c      	add	r4, r5
 8000482:	ea80 0202 	eor.w	r2, r0, r2
 8000486:	ea81 0303 	eor.w	r3, r1, r3
 800048a:	ea82 0000 	eor.w	r0, r2, r0
 800048e:	ea83 0101 	eor.w	r1, r3, r1
 8000492:	ea80 0202 	eor.w	r2, r0, r2
 8000496:	ea81 0303 	eor.w	r3, r1, r3
 800049a:	2d36      	cmp	r5, #54	; 0x36
 800049c:	bf88      	it	hi
 800049e:	bd30      	pophi	{r4, r5, pc}
 80004a0:	f011 4f00 	tst.w	r1, #2147483648	; 0x80000000
 80004a4:	ea4f 3101 	mov.w	r1, r1, lsl #12
 80004a8:	f44f 1c80 	mov.w	ip, #1048576	; 0x100000
 80004ac:	ea4c 3111 	orr.w	r1, ip, r1, lsr #12
 80004b0:	d002      	beq.n	80004b8 <__adddf3+0x70>
 80004b2:	4240      	negs	r0, r0
 80004b4:	eb61 0141 	sbc.w	r1, r1, r1, lsl #1
 80004b8:	f013 4f00 	tst.w	r3, #2147483648	; 0x80000000
 80004bc:	ea4f 3303 	mov.w	r3, r3, lsl #12
 80004c0:	ea4c 3313 	orr.w	r3, ip, r3, lsr #12
 80004c4:	d002      	beq.n	80004cc <__adddf3+0x84>
 80004c6:	4252      	negs	r2, r2
 80004c8:	eb63 0343 	sbc.w	r3, r3, r3, lsl #1
 80004cc:	ea94 0f05 	teq	r4, r5
 80004d0:	f000 80a7 	beq.w	8000622 <__adddf3+0x1da>
 80004d4:	f1a4 0401 	sub.w	r4, r4, #1
 80004d8:	f1d5 0e20 	rsbs	lr, r5, #32
 80004dc:	db0d      	blt.n	80004fa <__adddf3+0xb2>
 80004de:	fa02 fc0e 	lsl.w	ip, r2, lr
 80004e2:	fa22 f205 	lsr.w	r2, r2, r5
 80004e6:	1880      	adds	r0, r0, r2
 80004e8:	f141 0100 	adc.w	r1, r1, #0
 80004ec:	fa03 f20e 	lsl.w	r2, r3, lr
 80004f0:	1880      	adds	r0, r0, r2
 80004f2:	fa43 f305 	asr.w	r3, r3, r5
 80004f6:	4159      	adcs	r1, r3
 80004f8:	e00e      	b.n	8000518 <__adddf3+0xd0>
 80004fa:	f1a5 0520 	sub.w	r5, r5, #32
 80004fe:	f10e 0e20 	add.w	lr, lr, #32
 8000502:	2a01      	cmp	r2, #1
 8000504:	fa03 fc0e 	lsl.w	ip, r3, lr
 8000508:	bf28      	it	cs
 800050a:	f04c 0c02 	orrcs.w	ip, ip, #2
 800050e:	fa43 f305 	asr.w	r3, r3, r5
 8000512:	18c0      	adds	r0, r0, r3
 8000514:	eb51 71e3 	adcs.w	r1, r1, r3, asr #31
 8000518:	f001 4500 	and.w	r5, r1, #2147483648	; 0x80000000
 800051c:	d507      	bpl.n	800052e <__adddf3+0xe6>
 800051e:	f04f 0e00 	mov.w	lr, #0
 8000522:	f1dc 0c00 	rsbs	ip, ip, #0
 8000526:	eb7e 0000 	sbcs.w	r0, lr, r0
 800052a:	eb6e 0101 	sbc.w	r1, lr, r1
 800052e:	f5b1 1f80 	cmp.w	r1, #1048576	; 0x100000
 8000532:	d31b      	bcc.n	800056c <__adddf3+0x124>
 8000534:	f5b1 1f00 	cmp.w	r1, #2097152	; 0x200000
 8000538:	d30c      	bcc.n	8000554 <__adddf3+0x10c>
 800053a:	0849      	lsrs	r1, r1, #1
 800053c:	ea5f 0030 	movs.w	r0, r0, rrx
 8000540:	ea4f 0c3c 	mov.w	ip, ip, rrx
 8000544:	f104 0401 	add.w	r4, r4, #1
 8000548:	ea4f 5244 	mov.w	r2, r4, lsl #21
 800054c:	f512 0f80 	cmn.w	r2, #4194304	; 0x400000
 8000550:	f080 809a 	bcs.w	8000688 <__adddf3+0x240>
 8000554:	f1bc 4f00 	cmp.w	ip, #2147483648	; 0x80000000
 8000558:	bf08      	it	eq
 800055a:	ea5f 0c50 	movseq.w	ip, r0, lsr #1
 800055e:	f150 0000 	adcs.w	r0, r0, #0
 8000562:	eb41 5104 	adc.w	r1, r1, r4, lsl #20
 8000566:	ea41 0105 	orr.w	r1, r1, r5
 800056a:	bd30      	pop	{r4, r5, pc}
 800056c:	ea5f 0c4c 	movs.w	ip, ip, lsl #1
 8000570:	4140      	adcs	r0, r0
 8000572:	eb41 0101 	adc.w	r1, r1, r1
 8000576:	3c01      	subs	r4, #1
 8000578:	bf28      	it	cs
 800057a:	f5b1 1f80 	cmpcs.w	r1, #1048576	; 0x100000
 800057e:	d2e9      	bcs.n	8000554 <__adddf3+0x10c>
 8000580:	f091 0f00 	teq	r1, #0
 8000584:	bf04      	itt	eq
 8000586:	4601      	moveq	r1, r0
 8000588:	2000      	moveq	r0, #0
 800058a:	fab1 f381 	clz	r3, r1
 800058e:	bf08      	it	eq
 8000590:	3320      	addeq	r3, #32
 8000592:	f1a3 030b 	sub.w	r3, r3, #11
 8000596:	f1b3 0220 	subs.w	r2, r3, #32
 800059a:	da0c      	bge.n	80005b6 <__adddf3+0x16e>
 800059c:	320c      	adds	r2, #12
 800059e:	dd08      	ble.n	80005b2 <__adddf3+0x16a>
 80005a0:	f102 0c14 	add.w	ip, r2, #20
 80005a4:	f1c2 020c 	rsb	r2, r2, #12
 80005a8:	fa01 f00c 	lsl.w	r0, r1, ip
 80005ac:	fa21 f102 	lsr.w	r1, r1, r2
 80005b0:	e00c      	b.n	80005cc <__adddf3+0x184>
 80005b2:	f102 0214 	add.w	r2, r2, #20
 80005b6:	bfd8      	it	le
 80005b8:	f1c2 0c20 	rsble	ip, r2, #32
 80005bc:	fa01 f102 	lsl.w	r1, r1, r2
 80005c0:	fa20 fc0c 	lsr.w	ip, r0, ip
 80005c4:	bfdc      	itt	le
 80005c6:	ea41 010c 	orrle.w	r1, r1, ip
 80005ca:	4090      	lslle	r0, r2
 80005cc:	1ae4      	subs	r4, r4, r3
 80005ce:	bfa2      	ittt	ge
 80005d0:	eb01 5104 	addge.w	r1, r1, r4, lsl #20
 80005d4:	4329      	orrge	r1, r5
 80005d6:	bd30      	popge	{r4, r5, pc}
 80005d8:	ea6f 0404 	mvn.w	r4, r4
 80005dc:	3c1f      	subs	r4, #31
 80005de:	da1c      	bge.n	800061a <__adddf3+0x1d2>
 80005e0:	340c      	adds	r4, #12
 80005e2:	dc0e      	bgt.n	8000602 <__adddf3+0x1ba>
 80005e4:	f104 0414 	add.w	r4, r4, #20
 80005e8:	f1c4 0220 	rsb	r2, r4, #32
 80005ec:	fa20 f004 	lsr.w	r0, r0, r4
 80005f0:	fa01 f302 	lsl.w	r3, r1, r2
 80005f4:	ea40 0003 	orr.w	r0, r0, r3
 80005f8:	fa21 f304 	lsr.w	r3, r1, r4
 80005fc:	ea45 0103 	orr.w	r1, r5, r3
 8000600:	bd30      	pop	{r4, r5, pc}
 8000602:	f1c4 040c 	rsb	r4, r4, #12
 8000606:	f1c4 0220 	rsb	r2, r4, #32
 800060a:	fa20 f002 	lsr.w	r0, r0, r2
 800060e:	fa01 f304 	lsl.w	r3, r1, r4
 8000612:	ea40 0003 	orr.w	r0, r0, r3
 8000616:	4629      	mov	r1, r5
 8000618:	bd30      	pop	{r4, r5, pc}
 800061a:	fa21 f004 	lsr.w	r0, r1, r4
 800061e:	4629      	mov	r1, r5
 8000620:	bd30      	pop	{r4, r5, pc}
 8000622:	f094 0f00 	teq	r4, #0
 8000626:	f483 1380 	eor.w	r3, r3, #1048576	; 0x100000
 800062a:	bf06      	itte	eq
 800062c:	f481 1180 	eoreq.w	r1, r1, #1048576	; 0x100000
 8000630:	3401      	addeq	r4, #1
 8000632:	3d01      	subne	r5, #1
 8000634:	e74e      	b.n	80004d4 <__adddf3+0x8c>
 8000636:	ea7f 5c64 	mvns.w	ip, r4, asr #21
 800063a:	bf18      	it	ne
 800063c:	ea7f 5c65 	mvnsne.w	ip, r5, asr #21
 8000640:	d029      	beq.n	8000696 <__adddf3+0x24e>
 8000642:	ea94 0f05 	teq	r4, r5
 8000646:	bf08      	it	eq
 8000648:	ea90 0f02 	teqeq	r0, r2
 800064c:	d005      	beq.n	800065a <__adddf3+0x212>
 800064e:	ea54 0c00 	orrs.w	ip, r4, r0
 8000652:	bf04      	itt	eq
 8000654:	4619      	moveq	r1, r3
 8000656:	4610      	moveq	r0, r2
 8000658:	bd30      	pop	{r4, r5, pc}
 800065a:	ea91 0f03 	teq	r1, r3
 800065e:	bf1e      	ittt	ne
 8000660:	2100      	movne	r1, #0
 8000662:	2000      	movne	r0, #0
 8000664:	bd30      	popne	{r4, r5, pc}
 8000666:	ea5f 5c54 	movs.w	ip, r4, lsr #21
 800066a:	d105      	bne.n	8000678 <__adddf3+0x230>
 800066c:	0040      	lsls	r0, r0, #1
 800066e:	4149      	adcs	r1, r1
 8000670:	bf28      	it	cs
 8000672:	f041 4100 	orrcs.w	r1, r1, #2147483648	; 0x80000000
 8000676:	bd30      	pop	{r4, r5, pc}
 8000678:	f514 0480 	adds.w	r4, r4, #4194304	; 0x400000
 800067c:	bf3c      	itt	cc
 800067e:	f501 1180 	addcc.w	r1, r1, #1048576	; 0x100000
 8000682:	bd30      	popcc	{r4, r5, pc}
 8000684:	f001 4500 	and.w	r5, r1, #2147483648	; 0x80000000
 8000688:	f045 41fe 	orr.w	r1, r5, #2130706432	; 0x7f000000
 800068c:	f441 0170 	orr.w	r1, r1, #15728640	; 0xf00000
 8000690:	f04f 0000 	mov.w	r0, #0
 8000694:	bd30      	pop	{r4, r5, pc}
 8000696:	ea7f 5c64 	mvns.w	ip, r4, asr #21
 800069a:	bf1a      	itte	ne
 800069c:	4619      	movne	r1, r3
 800069e:	4610      	movne	r0, r2
 80006a0:	ea7f 5c65 	mvnseq.w	ip, r5, asr #21
 80006a4:	bf1c      	itt	ne
 80006a6:	460b      	movne	r3, r1
 80006a8:	4602      	movne	r2, r0
 80006aa:	ea50 3401 	orrs.w	r4, r0, r1, lsl #12
 80006ae:	bf06      	itte	eq
 80006b0:	ea52 3503 	orrseq.w	r5, r2, r3, lsl #12
 80006b4:	ea91 0f03 	teqeq	r1, r3
 80006b8:	f441 2100 	orrne.w	r1, r1, #524288	; 0x80000
 80006bc:	bd30      	pop	{r4, r5, pc}
 80006be:	bf00      	nop

080006c0 <__aeabi_ui2d>:
 80006c0:	f090 0f00 	teq	r0, #0
 80006c4:	bf04      	itt	eq
 80006c6:	2100      	moveq	r1, #0
 80006c8:	4770      	bxeq	lr
 80006ca:	b530      	push	{r4, r5, lr}
 80006cc:	f44f 6480 	mov.w	r4, #1024	; 0x400
 80006d0:	f104 0432 	add.w	r4, r4, #50	; 0x32
 80006d4:	f04f 0500 	mov.w	r5, #0
 80006d8:	f04f 0100 	mov.w	r1, #0
 80006dc:	e750      	b.n	8000580 <__adddf3+0x138>
 80006de:	bf00      	nop

080006e0 <__aeabi_i2d>:
 80006e0:	f090 0f00 	teq	r0, #0
 80006e4:	bf04      	itt	eq
 80006e6:	2100      	moveq	r1, #0
 80006e8:	4770      	bxeq	lr
 80006ea:	b530      	push	{r4, r5, lr}
 80006ec:	f44f 6480 	mov.w	r4, #1024	; 0x400
 80006f0:	f104 0432 	add.w	r4, r4, #50	; 0x32
 80006f4:	f010 4500 	ands.w	r5, r0, #2147483648	; 0x80000000
 80006f8:	bf48      	it	mi
 80006fa:	4240      	negmi	r0, r0
 80006fc:	f04f 0100 	mov.w	r1, #0
 8000700:	e73e      	b.n	8000580 <__adddf3+0x138>
 8000702:	bf00      	nop

08000704 <__aeabi_f2d>:
 8000704:	0042      	lsls	r2, r0, #1
 8000706:	ea4f 01e2 	mov.w	r1, r2, asr #3
 800070a:	ea4f 0131 	mov.w	r1, r1, rrx
 800070e:	ea4f 7002 	mov.w	r0, r2, lsl #28
 8000712:	bf1f      	itttt	ne
 8000714:	f012 437f 	andsne.w	r3, r2, #4278190080	; 0xff000000
 8000718:	f093 4f7f 	teqne	r3, #4278190080	; 0xff000000
 800071c:	f081 5160 	eorne.w	r1, r1, #939524096	; 0x38000000
 8000720:	4770      	bxne	lr
 8000722:	f032 427f 	bics.w	r2, r2, #4278190080	; 0xff000000
 8000726:	bf08      	it	eq
 8000728:	4770      	bxeq	lr
 800072a:	f093 4f7f 	teq	r3, #4278190080	; 0xff000000
 800072e:	bf04      	itt	eq
 8000730:	f441 2100 	orreq.w	r1, r1, #524288	; 0x80000
 8000734:	4770      	bxeq	lr
 8000736:	b530      	push	{r4, r5, lr}
 8000738:	f44f 7460 	mov.w	r4, #896	; 0x380
 800073c:	f001 4500 	and.w	r5, r1, #2147483648	; 0x80000000
 8000740:	f021 4100 	bic.w	r1, r1, #2147483648	; 0x80000000
 8000744:	e71c      	b.n	8000580 <__adddf3+0x138>
 8000746:	bf00      	nop

08000748 <__aeabi_ul2d>:
 8000748:	ea50 0201 	orrs.w	r2, r0, r1
 800074c:	bf08      	it	eq
 800074e:	4770      	bxeq	lr
 8000750:	b530      	push	{r4, r5, lr}
 8000752:	f04f 0500 	mov.w	r5, #0
 8000756:	e00a      	b.n	800076e <__aeabi_l2d+0x16>

08000758 <__aeabi_l2d>:
 8000758:	ea50 0201 	orrs.w	r2, r0, r1
 800075c:	bf08      	it	eq
 800075e:	4770      	bxeq	lr
 8000760:	b530      	push	{r4, r5, lr}
 8000762:	f011 4500 	ands.w	r5, r1, #2147483648	; 0x80000000
 8000766:	d502      	bpl.n	800076e <__aeabi_l2d+0x16>
 8000768:	4240      	negs	r0, r0
 800076a:	eb61 0141 	sbc.w	r1, r1, r1, lsl #1
 800076e:	f44f 6480 	mov.w	r4, #1024	; 0x400
 8000772:	f104 0432 	add.w	r4, r4, #50	; 0x32
 8000776:	ea5f 5c91 	movs.w	ip, r1, lsr #22
 800077a:	f43f aed8 	beq.w	800052e <__adddf3+0xe6>
 800077e:	f04f 0203 	mov.w	r2, #3
 8000782:	ea5f 0cdc 	movs.w	ip, ip, lsr #3
 8000786:	bf18      	it	ne
 8000788:	3203      	addne	r2, #3
 800078a:	ea5f 0cdc 	movs.w	ip, ip, lsr #3
 800078e:	bf18      	it	ne
 8000790:	3203      	addne	r2, #3
 8000792:	eb02 02dc 	add.w	r2, r2, ip, lsr #3
 8000796:	f1c2 0320 	rsb	r3, r2, #32
 800079a:	fa00 fc03 	lsl.w	ip, r0, r3
 800079e:	fa20 f002 	lsr.w	r0, r0, r2
 80007a2:	fa01 fe03 	lsl.w	lr, r1, r3
 80007a6:	ea40 000e 	orr.w	r0, r0, lr
 80007aa:	fa21 f102 	lsr.w	r1, r1, r2
 80007ae:	4414      	add	r4, r2
 80007b0:	e6bd      	b.n	800052e <__adddf3+0xe6>
 80007b2:	bf00      	nop

080007b4 <__aeabi_d2uiz>:
 80007b4:	004a      	lsls	r2, r1, #1
 80007b6:	d211      	bcs.n	80007dc <__aeabi_d2uiz+0x28>
 80007b8:	f512 1200 	adds.w	r2, r2, #2097152	; 0x200000
 80007bc:	d211      	bcs.n	80007e2 <__aeabi_d2uiz+0x2e>
 80007be:	d50d      	bpl.n	80007dc <__aeabi_d2uiz+0x28>
 80007c0:	f46f 7378 	mvn.w	r3, #992	; 0x3e0
 80007c4:	ebb3 5262 	subs.w	r2, r3, r2, asr #21
 80007c8:	d40e      	bmi.n	80007e8 <__aeabi_d2uiz+0x34>
 80007ca:	ea4f 23c1 	mov.w	r3, r1, lsl #11
 80007ce:	f043 4300 	orr.w	r3, r3, #2147483648	; 0x80000000
 80007d2:	ea43 5350 	orr.w	r3, r3, r0, lsr #21
 80007d6:	fa23 f002 	lsr.w	r0, r3, r2
 80007da:	4770      	bx	lr
 80007dc:	f04f 0000 	mov.w	r0, #0
 80007e0:	4770      	bx	lr
 80007e2:	ea50 3001 	orrs.w	r0, r0, r1, lsl #12
 80007e6:	d102      	bne.n	80007ee <__aeabi_d2uiz+0x3a>
 80007e8:	f04f 30ff 	mov.w	r0, #4294967295
 80007ec:	4770      	bx	lr
 80007ee:	f04f 0000 	mov.w	r0, #0
 80007f2:	4770      	bx	lr

080007f4 <GPIO_PLCK_Control>:
 * @return			-none
 *
 * @note			-none
 */
void GPIO_PLCK_Control(GPIO_RegDef_t *pGPIOx, uint8_t EnorDi)
{
 80007f4:	b480      	push	{r7}
 80007f6:	b083      	sub	sp, #12
 80007f8:	af00      	add	r7, sp, #0
 80007fa:	6078      	str	r0, [r7, #4]
 80007fc:	460b      	mov	r3, r1
 80007fe:	70fb      	strb	r3, [r7, #3]
	if(EnorDi == ENABLE)
 8000800:	78fb      	ldrb	r3, [r7, #3]
 8000802:	2b01      	cmp	r3, #1
 8000804:	d162      	bne.n	80008cc <GPIO_PLCK_Control+0xd8>
	{
		if(pGPIOx == GPIOA)
 8000806:	687b      	ldr	r3, [r7, #4]
 8000808:	4a64      	ldr	r2, [pc, #400]	; (800099c <GPIO_PLCK_Control+0x1a8>)
 800080a:	4293      	cmp	r3, r2
 800080c:	d106      	bne.n	800081c <GPIO_PLCK_Control+0x28>
		{
			GPIOA_PCLK_EN();
 800080e:	4b64      	ldr	r3, [pc, #400]	; (80009a0 <GPIO_PLCK_Control+0x1ac>)
 8000810:	6b1b      	ldr	r3, [r3, #48]	; 0x30
 8000812:	4a63      	ldr	r2, [pc, #396]	; (80009a0 <GPIO_PLCK_Control+0x1ac>)
 8000814:	f043 0301 	orr.w	r3, r3, #1
 8000818:	6313      	str	r3, [r2, #48]	; 0x30
			else if(pGPIOx == GPIOI)
			{
				GPIOI_PCLK_DI();
			}
	}
}
 800081a:	e0b9      	b.n	8000990 <GPIO_PLCK_Control+0x19c>
		else if(pGPIOx == GPIOB)
 800081c:	687b      	ldr	r3, [r7, #4]
 800081e:	4a61      	ldr	r2, [pc, #388]	; (80009a4 <GPIO_PLCK_Control+0x1b0>)
 8000820:	4293      	cmp	r3, r2
 8000822:	d106      	bne.n	8000832 <GPIO_PLCK_Control+0x3e>
			GPIOB_PCLK_EN();
 8000824:	4b5e      	ldr	r3, [pc, #376]	; (80009a0 <GPIO_PLCK_Control+0x1ac>)
 8000826:	6b1b      	ldr	r3, [r3, #48]	; 0x30
 8000828:	4a5d      	ldr	r2, [pc, #372]	; (80009a0 <GPIO_PLCK_Control+0x1ac>)
 800082a:	f043 0302 	orr.w	r3, r3, #2
 800082e:	6313      	str	r3, [r2, #48]	; 0x30
}
 8000830:	e0ae      	b.n	8000990 <GPIO_PLCK_Control+0x19c>
		else if(pGPIOx == GPIOC)
 8000832:	687b      	ldr	r3, [r7, #4]
 8000834:	4a5c      	ldr	r2, [pc, #368]	; (80009a8 <GPIO_PLCK_Control+0x1b4>)
 8000836:	4293      	cmp	r3, r2
 8000838:	d106      	bne.n	8000848 <GPIO_PLCK_Control+0x54>
			GPIOC_PCLK_EN();
 800083a:	4b59      	ldr	r3, [pc, #356]	; (80009a0 <GPIO_PLCK_Control+0x1ac>)
 800083c:	6b1b      	ldr	r3, [r3, #48]	; 0x30
 800083e:	4a58      	ldr	r2, [pc, #352]	; (80009a0 <GPIO_PLCK_Control+0x1ac>)
 8000840:	f043 0304 	orr.w	r3, r3, #4
 8000844:	6313      	str	r3, [r2, #48]	; 0x30
}
 8000846:	e0a3      	b.n	8000990 <GPIO_PLCK_Control+0x19c>
		else if(pGPIOx == GPIOD)
 8000848:	687b      	ldr	r3, [r7, #4]
 800084a:	4a58      	ldr	r2, [pc, #352]	; (80009ac <GPIO_PLCK_Control+0x1b8>)
 800084c:	4293      	cmp	r3, r2
 800084e:	d106      	bne.n	800085e <GPIO_PLCK_Control+0x6a>
			GPIOD_PCLK_EN();
 8000850:	4b53      	ldr	r3, [pc, #332]	; (80009a0 <GPIO_PLCK_Control+0x1ac>)
 8000852:	6b1b      	ldr	r3, [r3, #48]	; 0x30
 8000854:	4a52      	ldr	r2, [pc, #328]	; (80009a0 <GPIO_PLCK_Control+0x1ac>)
 8000856:	f043 0308 	orr.w	r3, r3, #8
 800085a:	6313      	str	r3, [r2, #48]	; 0x30
}
 800085c:	e098      	b.n	8000990 <GPIO_PLCK_Control+0x19c>
		else if(pGPIOx == GPIOE)
 800085e:	687b      	ldr	r3, [r7, #4]
 8000860:	4a53      	ldr	r2, [pc, #332]	; (80009b0 <GPIO_PLCK_Control+0x1bc>)
 8000862:	4293      	cmp	r3, r2
 8000864:	d106      	bne.n	8000874 <GPIO_PLCK_Control+0x80>
			GPIOE_PCLK_EN();
 8000866:	4b4e      	ldr	r3, [pc, #312]	; (80009a0 <GPIO_PLCK_Control+0x1ac>)
 8000868:	6b1b      	ldr	r3, [r3, #48]	; 0x30
 800086a:	4a4d      	ldr	r2, [pc, #308]	; (80009a0 <GPIO_PLCK_Control+0x1ac>)
 800086c:	f043 0310 	orr.w	r3, r3, #16
 8000870:	6313      	str	r3, [r2, #48]	; 0x30
}
 8000872:	e08d      	b.n	8000990 <GPIO_PLCK_Control+0x19c>
		else if(pGPIOx == GPIOF)
 8000874:	687b      	ldr	r3, [r7, #4]
 8000876:	4a4f      	ldr	r2, [pc, #316]	; (80009b4 <GPIO_PLCK_Control+0x1c0>)
 8000878:	4293      	cmp	r3, r2
 800087a:	d106      	bne.n	800088a <GPIO_PLCK_Control+0x96>
			GPIOF_PCLK_EN();
 800087c:	4b48      	ldr	r3, [pc, #288]	; (80009a0 <GPIO_PLCK_Control+0x1ac>)
 800087e:	6b1b      	ldr	r3, [r3, #48]	; 0x30
 8000880:	4a47      	ldr	r2, [pc, #284]	; (80009a0 <GPIO_PLCK_Control+0x1ac>)
 8000882:	f043 0320 	orr.w	r3, r3, #32
 8000886:	6313      	str	r3, [r2, #48]	; 0x30
}
 8000888:	e082      	b.n	8000990 <GPIO_PLCK_Control+0x19c>
		else if(pGPIOx == GPIOG)
 800088a:	687b      	ldr	r3, [r7, #4]
 800088c:	4a4a      	ldr	r2, [pc, #296]	; (80009b8 <GPIO_PLCK_Control+0x1c4>)
 800088e:	4293      	cmp	r3, r2
 8000890:	d106      	bne.n	80008a0 <GPIO_PLCK_Control+0xac>
			GPIOG_PCLK_EN();
 8000892:	4b43      	ldr	r3, [pc, #268]	; (80009a0 <GPIO_PLCK_Control+0x1ac>)
 8000894:	6b1b      	ldr	r3, [r3, #48]	; 0x30
 8000896:	4a42      	ldr	r2, [pc, #264]	; (80009a0 <GPIO_PLCK_Control+0x1ac>)
 8000898:	f043 0340 	orr.w	r3, r3, #64	; 0x40
 800089c:	6313      	str	r3, [r2, #48]	; 0x30
}
 800089e:	e077      	b.n	8000990 <GPIO_PLCK_Control+0x19c>
		else if(pGPIOx == GPIOH)
 80008a0:	687b      	ldr	r3, [r7, #4]
 80008a2:	4a46      	ldr	r2, [pc, #280]	; (80009bc <GPIO_PLCK_Control+0x1c8>)
 80008a4:	4293      	cmp	r3, r2
 80008a6:	d106      	bne.n	80008b6 <GPIO_PLCK_Control+0xc2>
			GPIOH_PCLK_EN();
 80008a8:	4b3d      	ldr	r3, [pc, #244]	; (80009a0 <GPIO_PLCK_Control+0x1ac>)
 80008aa:	6b1b      	ldr	r3, [r3, #48]	; 0x30
 80008ac:	4a3c      	ldr	r2, [pc, #240]	; (80009a0 <GPIO_PLCK_Control+0x1ac>)
 80008ae:	f043 0380 	orr.w	r3, r3, #128	; 0x80
 80008b2:	6313      	str	r3, [r2, #48]	; 0x30
}
 80008b4:	e06c      	b.n	8000990 <GPIO_PLCK_Control+0x19c>
		else if(pGPIOx == GPIOI)
 80008b6:	687b      	ldr	r3, [r7, #4]
 80008b8:	4a41      	ldr	r2, [pc, #260]	; (80009c0 <GPIO_PLCK_Control+0x1cc>)
 80008ba:	4293      	cmp	r3, r2
 80008bc:	d168      	bne.n	8000990 <GPIO_PLCK_Control+0x19c>
			GPIOI_PCLK_EN();
 80008be:	4b38      	ldr	r3, [pc, #224]	; (80009a0 <GPIO_PLCK_Control+0x1ac>)
 80008c0:	6b1b      	ldr	r3, [r3, #48]	; 0x30
 80008c2:	4a37      	ldr	r2, [pc, #220]	; (80009a0 <GPIO_PLCK_Control+0x1ac>)
 80008c4:	f443 7380 	orr.w	r3, r3, #256	; 0x100
 80008c8:	6313      	str	r3, [r2, #48]	; 0x30
}
 80008ca:	e061      	b.n	8000990 <GPIO_PLCK_Control+0x19c>
		if(pGPIOx == GPIOA)
 80008cc:	687b      	ldr	r3, [r7, #4]
 80008ce:	4a33      	ldr	r2, [pc, #204]	; (800099c <GPIO_PLCK_Control+0x1a8>)
 80008d0:	4293      	cmp	r3, r2
 80008d2:	d106      	bne.n	80008e2 <GPIO_PLCK_Control+0xee>
				GPIOA_PCLK_DI();
 80008d4:	4b32      	ldr	r3, [pc, #200]	; (80009a0 <GPIO_PLCK_Control+0x1ac>)
 80008d6:	6b1b      	ldr	r3, [r3, #48]	; 0x30
 80008d8:	4a31      	ldr	r2, [pc, #196]	; (80009a0 <GPIO_PLCK_Control+0x1ac>)
 80008da:	f023 0301 	bic.w	r3, r3, #1
 80008de:	6313      	str	r3, [r2, #48]	; 0x30
}
 80008e0:	e056      	b.n	8000990 <GPIO_PLCK_Control+0x19c>
			else if(pGPIOx == GPIOB)
 80008e2:	687b      	ldr	r3, [r7, #4]
 80008e4:	4a2f      	ldr	r2, [pc, #188]	; (80009a4 <GPIO_PLCK_Control+0x1b0>)
 80008e6:	4293      	cmp	r3, r2
 80008e8:	d106      	bne.n	80008f8 <GPIO_PLCK_Control+0x104>
				GPIOB_PCLK_DI();
 80008ea:	4b2d      	ldr	r3, [pc, #180]	; (80009a0 <GPIO_PLCK_Control+0x1ac>)
 80008ec:	6b1b      	ldr	r3, [r3, #48]	; 0x30
 80008ee:	4a2c      	ldr	r2, [pc, #176]	; (80009a0 <GPIO_PLCK_Control+0x1ac>)
 80008f0:	f023 0302 	bic.w	r3, r3, #2
 80008f4:	6313      	str	r3, [r2, #48]	; 0x30
}
 80008f6:	e04b      	b.n	8000990 <GPIO_PLCK_Control+0x19c>
			else if(pGPIOx == GPIOC)
 80008f8:	687b      	ldr	r3, [r7, #4]
 80008fa:	4a2b      	ldr	r2, [pc, #172]	; (80009a8 <GPIO_PLCK_Control+0x1b4>)
 80008fc:	4293      	cmp	r3, r2
 80008fe:	d106      	bne.n	800090e <GPIO_PLCK_Control+0x11a>
				GPIOC_PCLK_DI();
 8000900:	4b27      	ldr	r3, [pc, #156]	; (80009a0 <GPIO_PLCK_Control+0x1ac>)
 8000902:	6b1b      	ldr	r3, [r3, #48]	; 0x30
 8000904:	4a26      	ldr	r2, [pc, #152]	; (80009a0 <GPIO_PLCK_Control+0x1ac>)
 8000906:	f023 0304 	bic.w	r3, r3, #4
 800090a:	6313      	str	r3, [r2, #48]	; 0x30
}
 800090c:	e040      	b.n	8000990 <GPIO_PLCK_Control+0x19c>
			else if(pGPIOx == GPIOD)
 800090e:	687b      	ldr	r3, [r7, #4]
 8000910:	4a26      	ldr	r2, [pc, #152]	; (80009ac <GPIO_PLCK_Control+0x1b8>)
 8000912:	4293      	cmp	r3, r2
 8000914:	d106      	bne.n	8000924 <GPIO_PLCK_Control+0x130>
				GPIOD_PCLK_DI();
 8000916:	4b22      	ldr	r3, [pc, #136]	; (80009a0 <GPIO_PLCK_Control+0x1ac>)
 8000918:	6b1b      	ldr	r3, [r3, #48]	; 0x30
 800091a:	4a21      	ldr	r2, [pc, #132]	; (80009a0 <GPIO_PLCK_Control+0x1ac>)
 800091c:	f023 0308 	bic.w	r3, r3, #8
 8000920:	6313      	str	r3, [r2, #48]	; 0x30
}
 8000922:	e035      	b.n	8000990 <GPIO_PLCK_Control+0x19c>
			else if(pGPIOx == GPIOE)
 8000924:	687b      	ldr	r3, [r7, #4]
 8000926:	4a22      	ldr	r2, [pc, #136]	; (80009b0 <GPIO_PLCK_Control+0x1bc>)
 8000928:	4293      	cmp	r3, r2
 800092a:	d106      	bne.n	800093a <GPIO_PLCK_Control+0x146>
				GPIOE_PCLK_DI();
 800092c:	4b1c      	ldr	r3, [pc, #112]	; (80009a0 <GPIO_PLCK_Control+0x1ac>)
 800092e:	6b1b      	ldr	r3, [r3, #48]	; 0x30
 8000930:	4a1b      	ldr	r2, [pc, #108]	; (80009a0 <GPIO_PLCK_Control+0x1ac>)
 8000932:	f023 0310 	bic.w	r3, r3, #16
 8000936:	6313      	str	r3, [r2, #48]	; 0x30
}
 8000938:	e02a      	b.n	8000990 <GPIO_PLCK_Control+0x19c>
			else if(pGPIOx == GPIOF)
 800093a:	687b      	ldr	r3, [r7, #4]
 800093c:	4a1d      	ldr	r2, [pc, #116]	; (80009b4 <GPIO_PLCK_Control+0x1c0>)
 800093e:	4293      	cmp	r3, r2
 8000940:	d106      	bne.n	8000950 <GPIO_PLCK_Control+0x15c>
				GPIOF_PCLK_DI();
 8000942:	4b17      	ldr	r3, [pc, #92]	; (80009a0 <GPIO_PLCK_Control+0x1ac>)
 8000944:	6b1b      	ldr	r3, [r3, #48]	; 0x30
 8000946:	4a16      	ldr	r2, [pc, #88]	; (80009a0 <GPIO_PLCK_Control+0x1ac>)
 8000948:	f023 0320 	bic.w	r3, r3, #32
 800094c:	6313      	str	r3, [r2, #48]	; 0x30
}
 800094e:	e01f      	b.n	8000990 <GPIO_PLCK_Control+0x19c>
			else if(pGPIOx == GPIOG)
 8000950:	687b      	ldr	r3, [r7, #4]
 8000952:	4a19      	ldr	r2, [pc, #100]	; (80009b8 <GPIO_PLCK_Control+0x1c4>)
 8000954:	4293      	cmp	r3, r2
 8000956:	d106      	bne.n	8000966 <GPIO_PLCK_Control+0x172>
				GPIOG_PCLK_DI();
 8000958:	4b11      	ldr	r3, [pc, #68]	; (80009a0 <GPIO_PLCK_Control+0x1ac>)
 800095a:	6b1b      	ldr	r3, [r3, #48]	; 0x30
 800095c:	4a10      	ldr	r2, [pc, #64]	; (80009a0 <GPIO_PLCK_Control+0x1ac>)
 800095e:	f023 0340 	bic.w	r3, r3, #64	; 0x40
 8000962:	6313      	str	r3, [r2, #48]	; 0x30
}
 8000964:	e014      	b.n	8000990 <GPIO_PLCK_Control+0x19c>
			else if(pGPIOx == GPIOH)
 8000966:	687b      	ldr	r3, [r7, #4]
 8000968:	4a14      	ldr	r2, [pc, #80]	; (80009bc <GPIO_PLCK_Control+0x1c8>)
 800096a:	4293      	cmp	r3, r2
 800096c:	d106      	bne.n	800097c <GPIO_PLCK_Control+0x188>
				GPIOH_PCLK_DI();
 800096e:	4b0c      	ldr	r3, [pc, #48]	; (80009a0 <GPIO_PLCK_Control+0x1ac>)
 8000970:	6b1b      	ldr	r3, [r3, #48]	; 0x30
 8000972:	4a0b      	ldr	r2, [pc, #44]	; (80009a0 <GPIO_PLCK_Control+0x1ac>)
 8000974:	f023 0380 	bic.w	r3, r3, #128	; 0x80
 8000978:	6313      	str	r3, [r2, #48]	; 0x30
}
 800097a:	e009      	b.n	8000990 <GPIO_PLCK_Control+0x19c>
			else if(pGPIOx == GPIOI)
 800097c:	687b      	ldr	r3, [r7, #4]
 800097e:	4a10      	ldr	r2, [pc, #64]	; (80009c0 <GPIO_PLCK_Control+0x1cc>)
 8000980:	4293      	cmp	r3, r2
 8000982:	d105      	bne.n	8000990 <GPIO_PLCK_Control+0x19c>
				GPIOI_PCLK_DI();
 8000984:	4b06      	ldr	r3, [pc, #24]	; (80009a0 <GPIO_PLCK_Control+0x1ac>)
 8000986:	6b1b      	ldr	r3, [r3, #48]	; 0x30
 8000988:	4a05      	ldr	r2, [pc, #20]	; (80009a0 <GPIO_PLCK_Control+0x1ac>)
 800098a:	f423 7380 	bic.w	r3, r3, #256	; 0x100
 800098e:	6313      	str	r3, [r2, #48]	; 0x30
}
 8000990:	bf00      	nop
 8000992:	370c      	adds	r7, #12
 8000994:	46bd      	mov	sp, r7
 8000996:	bc80      	pop	{r7}
 8000998:	4770      	bx	lr
 800099a:	bf00      	nop
 800099c:	40020000 	.word	0x40020000
 80009a0:	40023800 	.word	0x40023800
 80009a4:	40020400 	.word	0x40020400
 80009a8:	40020800 	.word	0x40020800
 80009ac:	40020c00 	.word	0x40020c00
 80009b0:	40021000 	.word	0x40021000
 80009b4:	40021400 	.word	0x40021400
 80009b8:	40021800 	.word	0x40021800
 80009bc:	40021c00 	.word	0x40021c00
 80009c0:	40022000 	.word	0x40022000

080009c4 <GPIO_Init>:
 * @return			-none
 *
 * @note			-Wrote this code differently than the instructor, also made some corrections to his code
 */
void GPIO_Init(GPIO_Handler_t *pGPIOHandle)
{
 80009c4:	b580      	push	{r7, lr}
 80009c6:	b086      	sub	sp, #24
 80009c8:	af00      	add	r7, sp, #0
 80009ca:	6078      	str	r0, [r7, #4]
	 uint32_t temp=0; //temp. register
 80009cc:	2300      	movs	r3, #0
 80009ce:	617b      	str	r3, [r7, #20]

		 //enable the peripheral clock

	 	 GPIO_PLCK_Control(pGPIOHandle->pGPIOx, ENABLE);
 80009d0:	687b      	ldr	r3, [r7, #4]
 80009d2:	681b      	ldr	r3, [r3, #0]
 80009d4:	2101      	movs	r1, #1
 80009d6:	4618      	mov	r0, r3
 80009d8:	f7ff ff0c 	bl	80007f4 <GPIO_PLCK_Control>

		//1 . configure the mode of gpio pin

		if(pGPIOHandle->GPIO_PinConfig.GPIO_PinMode <= ANALOG)
 80009dc:	687b      	ldr	r3, [r7, #4]
 80009de:	795b      	ldrb	r3, [r3, #5]
 80009e0:	2b03      	cmp	r3, #3
 80009e2:	d820      	bhi.n	8000a26 <GPIO_Init+0x62>
		{
			//the non interrupt mode
			temp = (pGPIOHandle->GPIO_PinConfig.GPIO_PinMode << (2 * pGPIOHandle->GPIO_PinConfig.GPIO_PinNumber ) );
 80009e4:	687b      	ldr	r3, [r7, #4]
 80009e6:	795b      	ldrb	r3, [r3, #5]
 80009e8:	461a      	mov	r2, r3
 80009ea:	687b      	ldr	r3, [r7, #4]
 80009ec:	791b      	ldrb	r3, [r3, #4]
 80009ee:	005b      	lsls	r3, r3, #1
 80009f0:	fa02 f303 	lsl.w	r3, r2, r3
 80009f4:	617b      	str	r3, [r7, #20]
			pGPIOHandle->pGPIOx->MODER &= ~( 0x3 << (2 * pGPIOHandle->GPIO_PinConfig.GPIO_PinNumber)); //clearing
 80009f6:	687b      	ldr	r3, [r7, #4]
 80009f8:	681b      	ldr	r3, [r3, #0]
 80009fa:	681a      	ldr	r2, [r3, #0]
 80009fc:	687b      	ldr	r3, [r7, #4]
 80009fe:	791b      	ldrb	r3, [r3, #4]
 8000a00:	005b      	lsls	r3, r3, #1
 8000a02:	2103      	movs	r1, #3
 8000a04:	fa01 f303 	lsl.w	r3, r1, r3
 8000a08:	43db      	mvns	r3, r3
 8000a0a:	4619      	mov	r1, r3
 8000a0c:	687b      	ldr	r3, [r7, #4]
 8000a0e:	681b      	ldr	r3, [r3, #0]
 8000a10:	400a      	ands	r2, r1
 8000a12:	601a      	str	r2, [r3, #0]
			pGPIOHandle->pGPIOx->MODER |= temp; //setting
 8000a14:	687b      	ldr	r3, [r7, #4]
 8000a16:	681b      	ldr	r3, [r3, #0]
 8000a18:	6819      	ldr	r1, [r3, #0]
 8000a1a:	687b      	ldr	r3, [r7, #4]
 8000a1c:	681b      	ldr	r3, [r3, #0]
 8000a1e:	697a      	ldr	r2, [r7, #20]
 8000a20:	430a      	orrs	r2, r1
 8000a22:	601a      	str	r2, [r3, #0]
 8000a24:	e0cb      	b.n	8000bbe <GPIO_Init+0x1fa>

		}else
		{
			//this part will code later . ( interrupt mode)
			if(pGPIOHandle->GPIO_PinConfig.GPIO_PinMode ==FALLEDGE )
 8000a26:	687b      	ldr	r3, [r7, #4]
 8000a28:	795b      	ldrb	r3, [r3, #5]
 8000a2a:	2b04      	cmp	r3, #4
 8000a2c:	d117      	bne.n	8000a5e <GPIO_Init+0x9a>
			{
				//1. configure the FTSR
				EXTI->FTSR |= ( 1 << pGPIOHandle->GPIO_PinConfig.GPIO_PinNumber);
 8000a2e:	4b4b      	ldr	r3, [pc, #300]	; (8000b5c <GPIO_Init+0x198>)
 8000a30:	689b      	ldr	r3, [r3, #8]
 8000a32:	687a      	ldr	r2, [r7, #4]
 8000a34:	7912      	ldrb	r2, [r2, #4]
 8000a36:	4611      	mov	r1, r2
 8000a38:	2201      	movs	r2, #1
 8000a3a:	408a      	lsls	r2, r1
 8000a3c:	4611      	mov	r1, r2
 8000a3e:	4a47      	ldr	r2, [pc, #284]	; (8000b5c <GPIO_Init+0x198>)
 8000a40:	430b      	orrs	r3, r1
 8000a42:	6093      	str	r3, [r2, #8]
				//Clear the corresponding RTSR bit
				EXTI->RTSR &= ~( 1 << pGPIOHandle->GPIO_PinConfig.GPIO_PinNumber);
 8000a44:	4b45      	ldr	r3, [pc, #276]	; (8000b5c <GPIO_Init+0x198>)
 8000a46:	68db      	ldr	r3, [r3, #12]
 8000a48:	687a      	ldr	r2, [r7, #4]
 8000a4a:	7912      	ldrb	r2, [r2, #4]
 8000a4c:	4611      	mov	r1, r2
 8000a4e:	2201      	movs	r2, #1
 8000a50:	408a      	lsls	r2, r1
 8000a52:	43d2      	mvns	r2, r2
 8000a54:	4611      	mov	r1, r2
 8000a56:	4a41      	ldr	r2, [pc, #260]	; (8000b5c <GPIO_Init+0x198>)
 8000a58:	400b      	ands	r3, r1
 8000a5a:	60d3      	str	r3, [r2, #12]
 8000a5c:	e035      	b.n	8000aca <GPIO_Init+0x106>

			}else if (pGPIOHandle->GPIO_PinConfig.GPIO_PinMode ==RISEEDGE )
 8000a5e:	687b      	ldr	r3, [r7, #4]
 8000a60:	795b      	ldrb	r3, [r3, #5]
 8000a62:	2b05      	cmp	r3, #5
 8000a64:	d117      	bne.n	8000a96 <GPIO_Init+0xd2>
			{
				//1 . configure the RTSR
				EXTI->RTSR |= ( 1 << pGPIOHandle->GPIO_PinConfig.GPIO_PinNumber);
 8000a66:	4b3d      	ldr	r3, [pc, #244]	; (8000b5c <GPIO_Init+0x198>)
 8000a68:	68db      	ldr	r3, [r3, #12]
 8000a6a:	687a      	ldr	r2, [r7, #4]
 8000a6c:	7912      	ldrb	r2, [r2, #4]
 8000a6e:	4611      	mov	r1, r2
 8000a70:	2201      	movs	r2, #1
 8000a72:	408a      	lsls	r2, r1
 8000a74:	4611      	mov	r1, r2
 8000a76:	4a39      	ldr	r2, [pc, #228]	; (8000b5c <GPIO_Init+0x198>)
 8000a78:	430b      	orrs	r3, r1
 8000a7a:	60d3      	str	r3, [r2, #12]
				//Clear the corresponding RTSR bit
				EXTI->FTSR &= ~( 1 << pGPIOHandle->GPIO_PinConfig.GPIO_PinNumber);
 8000a7c:	4b37      	ldr	r3, [pc, #220]	; (8000b5c <GPIO_Init+0x198>)
 8000a7e:	689b      	ldr	r3, [r3, #8]
 8000a80:	687a      	ldr	r2, [r7, #4]
 8000a82:	7912      	ldrb	r2, [r2, #4]
 8000a84:	4611      	mov	r1, r2
 8000a86:	2201      	movs	r2, #1
 8000a88:	408a      	lsls	r2, r1
 8000a8a:	43d2      	mvns	r2, r2
 8000a8c:	4611      	mov	r1, r2
 8000a8e:	4a33      	ldr	r2, [pc, #204]	; (8000b5c <GPIO_Init+0x198>)
 8000a90:	400b      	ands	r3, r1
 8000a92:	6093      	str	r3, [r2, #8]
 8000a94:	e019      	b.n	8000aca <GPIO_Init+0x106>

			}else if (pGPIOHandle->GPIO_PinConfig.GPIO_PinMode == RFT )
 8000a96:	687b      	ldr	r3, [r7, #4]
 8000a98:	795b      	ldrb	r3, [r3, #5]
 8000a9a:	2b06      	cmp	r3, #6
 8000a9c:	d115      	bne.n	8000aca <GPIO_Init+0x106>
			{
				//1. configure both FTSR and RTSR
				EXTI->RTSR |= ( 1 << pGPIOHandle->GPIO_PinConfig.GPIO_PinNumber);
 8000a9e:	4b2f      	ldr	r3, [pc, #188]	; (8000b5c <GPIO_Init+0x198>)
 8000aa0:	68db      	ldr	r3, [r3, #12]
 8000aa2:	687a      	ldr	r2, [r7, #4]
 8000aa4:	7912      	ldrb	r2, [r2, #4]
 8000aa6:	4611      	mov	r1, r2
 8000aa8:	2201      	movs	r2, #1
 8000aaa:	408a      	lsls	r2, r1
 8000aac:	4611      	mov	r1, r2
 8000aae:	4a2b      	ldr	r2, [pc, #172]	; (8000b5c <GPIO_Init+0x198>)
 8000ab0:	430b      	orrs	r3, r1
 8000ab2:	60d3      	str	r3, [r2, #12]
				//Clear the corresponding RTSR bit
				EXTI->FTSR |= ( 1 << pGPIOHandle->GPIO_PinConfig.GPIO_PinNumber);
 8000ab4:	4b29      	ldr	r3, [pc, #164]	; (8000b5c <GPIO_Init+0x198>)
 8000ab6:	689b      	ldr	r3, [r3, #8]
 8000ab8:	687a      	ldr	r2, [r7, #4]
 8000aba:	7912      	ldrb	r2, [r2, #4]
 8000abc:	4611      	mov	r1, r2
 8000abe:	2201      	movs	r2, #1
 8000ac0:	408a      	lsls	r2, r1
 8000ac2:	4611      	mov	r1, r2
 8000ac4:	4a25      	ldr	r2, [pc, #148]	; (8000b5c <GPIO_Init+0x198>)
 8000ac6:	430b      	orrs	r3, r1
 8000ac8:	6093      	str	r3, [r2, #8]
			}

			//2. configure the GPIO port selection in SYSCFG_EXTICR
			uint8_t temp1 = pGPIOHandle->GPIO_PinConfig.GPIO_PinNumber / 4 ;
 8000aca:	687b      	ldr	r3, [r7, #4]
 8000acc:	791b      	ldrb	r3, [r3, #4]
 8000ace:	089b      	lsrs	r3, r3, #2
 8000ad0:	74fb      	strb	r3, [r7, #19]
			uint8_t temp2 = pGPIOHandle->GPIO_PinConfig.GPIO_PinNumber % 4;
 8000ad2:	687b      	ldr	r3, [r7, #4]
 8000ad4:	791b      	ldrb	r3, [r3, #4]
 8000ad6:	f003 0303 	and.w	r3, r3, #3
 8000ada:	74bb      	strb	r3, [r7, #18]
			uint8_t portcode = GPIO_BASEADDR_TO_CODE(pGPIOHandle->pGPIOx);
 8000adc:	687b      	ldr	r3, [r7, #4]
 8000ade:	681b      	ldr	r3, [r3, #0]
 8000ae0:	4a1f      	ldr	r2, [pc, #124]	; (8000b60 <GPIO_Init+0x19c>)
 8000ae2:	4293      	cmp	r3, r2
 8000ae4:	d04e      	beq.n	8000b84 <GPIO_Init+0x1c0>
 8000ae6:	687b      	ldr	r3, [r7, #4]
 8000ae8:	681b      	ldr	r3, [r3, #0]
 8000aea:	4a1e      	ldr	r2, [pc, #120]	; (8000b64 <GPIO_Init+0x1a0>)
 8000aec:	4293      	cmp	r3, r2
 8000aee:	d032      	beq.n	8000b56 <GPIO_Init+0x192>
 8000af0:	687b      	ldr	r3, [r7, #4]
 8000af2:	681b      	ldr	r3, [r3, #0]
 8000af4:	4a1c      	ldr	r2, [pc, #112]	; (8000b68 <GPIO_Init+0x1a4>)
 8000af6:	4293      	cmp	r3, r2
 8000af8:	d02b      	beq.n	8000b52 <GPIO_Init+0x18e>
 8000afa:	687b      	ldr	r3, [r7, #4]
 8000afc:	681b      	ldr	r3, [r3, #0]
 8000afe:	4a1b      	ldr	r2, [pc, #108]	; (8000b6c <GPIO_Init+0x1a8>)
 8000b00:	4293      	cmp	r3, r2
 8000b02:	d024      	beq.n	8000b4e <GPIO_Init+0x18a>
 8000b04:	687b      	ldr	r3, [r7, #4]
 8000b06:	681b      	ldr	r3, [r3, #0]
 8000b08:	4a19      	ldr	r2, [pc, #100]	; (8000b70 <GPIO_Init+0x1ac>)
 8000b0a:	4293      	cmp	r3, r2
 8000b0c:	d01d      	beq.n	8000b4a <GPIO_Init+0x186>
 8000b0e:	687b      	ldr	r3, [r7, #4]
 8000b10:	681b      	ldr	r3, [r3, #0]
 8000b12:	4a18      	ldr	r2, [pc, #96]	; (8000b74 <GPIO_Init+0x1b0>)
 8000b14:	4293      	cmp	r3, r2
 8000b16:	d016      	beq.n	8000b46 <GPIO_Init+0x182>
 8000b18:	687b      	ldr	r3, [r7, #4]
 8000b1a:	681b      	ldr	r3, [r3, #0]
 8000b1c:	4a16      	ldr	r2, [pc, #88]	; (8000b78 <GPIO_Init+0x1b4>)
 8000b1e:	4293      	cmp	r3, r2
 8000b20:	d00f      	beq.n	8000b42 <GPIO_Init+0x17e>
 8000b22:	687b      	ldr	r3, [r7, #4]
 8000b24:	681b      	ldr	r3, [r3, #0]
 8000b26:	4a15      	ldr	r2, [pc, #84]	; (8000b7c <GPIO_Init+0x1b8>)
 8000b28:	4293      	cmp	r3, r2
 8000b2a:	d008      	beq.n	8000b3e <GPIO_Init+0x17a>
 8000b2c:	687b      	ldr	r3, [r7, #4]
 8000b2e:	681b      	ldr	r3, [r3, #0]
 8000b30:	4a13      	ldr	r2, [pc, #76]	; (8000b80 <GPIO_Init+0x1bc>)
 8000b32:	4293      	cmp	r3, r2
 8000b34:	d101      	bne.n	8000b3a <GPIO_Init+0x176>
 8000b36:	2308      	movs	r3, #8
 8000b38:	e025      	b.n	8000b86 <GPIO_Init+0x1c2>
 8000b3a:	2300      	movs	r3, #0
 8000b3c:	e023      	b.n	8000b86 <GPIO_Init+0x1c2>
 8000b3e:	2307      	movs	r3, #7
 8000b40:	e021      	b.n	8000b86 <GPIO_Init+0x1c2>
 8000b42:	2306      	movs	r3, #6
 8000b44:	e01f      	b.n	8000b86 <GPIO_Init+0x1c2>
 8000b46:	2305      	movs	r3, #5
 8000b48:	e01d      	b.n	8000b86 <GPIO_Init+0x1c2>
 8000b4a:	2304      	movs	r3, #4
 8000b4c:	e01b      	b.n	8000b86 <GPIO_Init+0x1c2>
 8000b4e:	2303      	movs	r3, #3
 8000b50:	e019      	b.n	8000b86 <GPIO_Init+0x1c2>
 8000b52:	2302      	movs	r3, #2
 8000b54:	e017      	b.n	8000b86 <GPIO_Init+0x1c2>
 8000b56:	2301      	movs	r3, #1
 8000b58:	e015      	b.n	8000b86 <GPIO_Init+0x1c2>
 8000b5a:	bf00      	nop
 8000b5c:	40013c00 	.word	0x40013c00
 8000b60:	40020000 	.word	0x40020000
 8000b64:	40020400 	.word	0x40020400
 8000b68:	40020800 	.word	0x40020800
 8000b6c:	40020c00 	.word	0x40020c00
 8000b70:	40021000 	.word	0x40021000
 8000b74:	40021400 	.word	0x40021400
 8000b78:	40021800 	.word	0x40021800
 8000b7c:	40021c00 	.word	0x40021c00
 8000b80:	40022000 	.word	0x40022000
 8000b84:	2300      	movs	r3, #0
 8000b86:	747b      	strb	r3, [r7, #17]
			SYSCFG_PCLK_EN();
 8000b88:	4b59      	ldr	r3, [pc, #356]	; (8000cf0 <GPIO_Init+0x32c>)
 8000b8a:	6c5b      	ldr	r3, [r3, #68]	; 0x44
 8000b8c:	4a58      	ldr	r2, [pc, #352]	; (8000cf0 <GPIO_Init+0x32c>)
 8000b8e:	f443 4380 	orr.w	r3, r3, #16384	; 0x4000
 8000b92:	6453      	str	r3, [r2, #68]	; 0x44
			SYSCFG->EXTICR[temp1] = portcode << ( temp2 * 4);
 8000b94:	7c7a      	ldrb	r2, [r7, #17]
 8000b96:	7cbb      	ldrb	r3, [r7, #18]
 8000b98:	009b      	lsls	r3, r3, #2
 8000b9a:	fa02 f103 	lsl.w	r1, r2, r3
 8000b9e:	4a55      	ldr	r2, [pc, #340]	; (8000cf4 <GPIO_Init+0x330>)
 8000ba0:	7cfb      	ldrb	r3, [r7, #19]
 8000ba2:	3302      	adds	r3, #2
 8000ba4:	f842 1023 	str.w	r1, [r2, r3, lsl #2]

			//3 . enable the exti interrupt delivery using IMR
			EXTI->IMR |= 1 << pGPIOHandle->GPIO_PinConfig.GPIO_PinNumber;
 8000ba8:	4b53      	ldr	r3, [pc, #332]	; (8000cf8 <GPIO_Init+0x334>)
 8000baa:	681b      	ldr	r3, [r3, #0]
 8000bac:	687a      	ldr	r2, [r7, #4]
 8000bae:	7912      	ldrb	r2, [r2, #4]
 8000bb0:	4611      	mov	r1, r2
 8000bb2:	2201      	movs	r2, #1
 8000bb4:	408a      	lsls	r2, r1
 8000bb6:	4611      	mov	r1, r2
 8000bb8:	4a4f      	ldr	r2, [pc, #316]	; (8000cf8 <GPIO_Init+0x334>)
 8000bba:	430b      	orrs	r3, r1
 8000bbc:	6013      	str	r3, [r2, #0]
		}

		//2. configure the speed
		temp = (pGPIOHandle->GPIO_PinConfig.GPIO_PinSpeed << ( 2 * pGPIOHandle->GPIO_PinConfig.GPIO_PinNumber) );
 8000bbe:	687b      	ldr	r3, [r7, #4]
 8000bc0:	799b      	ldrb	r3, [r3, #6]
 8000bc2:	461a      	mov	r2, r3
 8000bc4:	687b      	ldr	r3, [r7, #4]
 8000bc6:	791b      	ldrb	r3, [r3, #4]
 8000bc8:	005b      	lsls	r3, r3, #1
 8000bca:	fa02 f303 	lsl.w	r3, r2, r3
 8000bce:	617b      	str	r3, [r7, #20]
		pGPIOHandle->pGPIOx->OSPEEDR &= ~( 0x3 << ( 2 * pGPIOHandle->GPIO_PinConfig.GPIO_PinNumber)); //clearing
 8000bd0:	687b      	ldr	r3, [r7, #4]
 8000bd2:	681b      	ldr	r3, [r3, #0]
 8000bd4:	689a      	ldr	r2, [r3, #8]
 8000bd6:	687b      	ldr	r3, [r7, #4]
 8000bd8:	791b      	ldrb	r3, [r3, #4]
 8000bda:	005b      	lsls	r3, r3, #1
 8000bdc:	2103      	movs	r1, #3
 8000bde:	fa01 f303 	lsl.w	r3, r1, r3
 8000be2:	43db      	mvns	r3, r3
 8000be4:	4619      	mov	r1, r3
 8000be6:	687b      	ldr	r3, [r7, #4]
 8000be8:	681b      	ldr	r3, [r3, #0]
 8000bea:	400a      	ands	r2, r1
 8000bec:	609a      	str	r2, [r3, #8]
		pGPIOHandle->pGPIOx->OSPEEDR |= temp;
 8000bee:	687b      	ldr	r3, [r7, #4]
 8000bf0:	681b      	ldr	r3, [r3, #0]
 8000bf2:	6899      	ldr	r1, [r3, #8]
 8000bf4:	687b      	ldr	r3, [r7, #4]
 8000bf6:	681b      	ldr	r3, [r3, #0]
 8000bf8:	697a      	ldr	r2, [r7, #20]
 8000bfa:	430a      	orrs	r2, r1
 8000bfc:	609a      	str	r2, [r3, #8]

		//3. configure the pupd settings
		temp = (pGPIOHandle->GPIO_PinConfig.GPIO_pinPuPdControl << ( 2 * pGPIOHandle->GPIO_PinConfig.GPIO_PinNumber) );
 8000bfe:	687b      	ldr	r3, [r7, #4]
 8000c00:	79db      	ldrb	r3, [r3, #7]
 8000c02:	461a      	mov	r2, r3
 8000c04:	687b      	ldr	r3, [r7, #4]
 8000c06:	791b      	ldrb	r3, [r3, #4]
 8000c08:	005b      	lsls	r3, r3, #1
 8000c0a:	fa02 f303 	lsl.w	r3, r2, r3
 8000c0e:	617b      	str	r3, [r7, #20]
		pGPIOHandle->pGPIOx->PUPDR &= ~( 0x3 << ( 2 * pGPIOHandle->GPIO_PinConfig.GPIO_PinNumber)); //clearing
 8000c10:	687b      	ldr	r3, [r7, #4]
 8000c12:	681b      	ldr	r3, [r3, #0]
 8000c14:	68da      	ldr	r2, [r3, #12]
 8000c16:	687b      	ldr	r3, [r7, #4]
 8000c18:	791b      	ldrb	r3, [r3, #4]
 8000c1a:	005b      	lsls	r3, r3, #1
 8000c1c:	2103      	movs	r1, #3
 8000c1e:	fa01 f303 	lsl.w	r3, r1, r3
 8000c22:	43db      	mvns	r3, r3
 8000c24:	4619      	mov	r1, r3
 8000c26:	687b      	ldr	r3, [r7, #4]
 8000c28:	681b      	ldr	r3, [r3, #0]
 8000c2a:	400a      	ands	r2, r1
 8000c2c:	60da      	str	r2, [r3, #12]
		pGPIOHandle->pGPIOx->PUPDR |= temp;
 8000c2e:	687b      	ldr	r3, [r7, #4]
 8000c30:	681b      	ldr	r3, [r3, #0]
 8000c32:	68d9      	ldr	r1, [r3, #12]
 8000c34:	687b      	ldr	r3, [r7, #4]
 8000c36:	681b      	ldr	r3, [r3, #0]
 8000c38:	697a      	ldr	r2, [r7, #20]
 8000c3a:	430a      	orrs	r2, r1
 8000c3c:	60da      	str	r2, [r3, #12]


		//4. configure the optype
		temp = (pGPIOHandle->GPIO_PinConfig.GPIO_PinOPType << pGPIOHandle->GPIO_PinConfig.GPIO_PinNumber );
 8000c3e:	687b      	ldr	r3, [r7, #4]
 8000c40:	7a1b      	ldrb	r3, [r3, #8]
 8000c42:	461a      	mov	r2, r3
 8000c44:	687b      	ldr	r3, [r7, #4]
 8000c46:	791b      	ldrb	r3, [r3, #4]
 8000c48:	fa02 f303 	lsl.w	r3, r2, r3
 8000c4c:	617b      	str	r3, [r7, #20]
		pGPIOHandle->pGPIOx->OTYPER &= ~( 0x1 << pGPIOHandle->GPIO_PinConfig.GPIO_PinNumber); //clearing
 8000c4e:	687b      	ldr	r3, [r7, #4]
 8000c50:	681b      	ldr	r3, [r3, #0]
 8000c52:	685a      	ldr	r2, [r3, #4]
 8000c54:	687b      	ldr	r3, [r7, #4]
 8000c56:	791b      	ldrb	r3, [r3, #4]
 8000c58:	4619      	mov	r1, r3
 8000c5a:	2301      	movs	r3, #1
 8000c5c:	408b      	lsls	r3, r1
 8000c5e:	43db      	mvns	r3, r3
 8000c60:	4619      	mov	r1, r3
 8000c62:	687b      	ldr	r3, [r7, #4]
 8000c64:	681b      	ldr	r3, [r3, #0]
 8000c66:	400a      	ands	r2, r1
 8000c68:	605a      	str	r2, [r3, #4]
		pGPIOHandle->pGPIOx->OTYPER |= temp;
 8000c6a:	687b      	ldr	r3, [r7, #4]
 8000c6c:	681b      	ldr	r3, [r3, #0]
 8000c6e:	6859      	ldr	r1, [r3, #4]
 8000c70:	687b      	ldr	r3, [r7, #4]
 8000c72:	681b      	ldr	r3, [r3, #0]
 8000c74:	697a      	ldr	r2, [r7, #20]
 8000c76:	430a      	orrs	r2, r1
 8000c78:	605a      	str	r2, [r3, #4]

		//5. configure the alt functionality
		if(pGPIOHandle->GPIO_PinConfig.GPIO_PinMode == ALTFUNC)
 8000c7a:	687b      	ldr	r3, [r7, #4]
 8000c7c:	795b      	ldrb	r3, [r3, #5]
 8000c7e:	2b02      	cmp	r3, #2
 8000c80:	d131      	bne.n	8000ce6 <GPIO_Init+0x322>
		{
			//configure the alt function registers.
			uint8_t temp1, temp2;

			temp1 = pGPIOHandle->GPIO_PinConfig.GPIO_PinNumber / 8;
 8000c82:	687b      	ldr	r3, [r7, #4]
 8000c84:	791b      	ldrb	r3, [r3, #4]
 8000c86:	08db      	lsrs	r3, r3, #3
 8000c88:	743b      	strb	r3, [r7, #16]
			temp2 = pGPIOHandle->GPIO_PinConfig.GPIO_PinNumber  % 8;
 8000c8a:	687b      	ldr	r3, [r7, #4]
 8000c8c:	791b      	ldrb	r3, [r3, #4]
 8000c8e:	f003 0307 	and.w	r3, r3, #7
 8000c92:	73fb      	strb	r3, [r7, #15]
			pGPIOHandle->pGPIOx->AFR[temp1] &= ~(0xF << ( 4 * temp2 ) ); //clearing
 8000c94:	687b      	ldr	r3, [r7, #4]
 8000c96:	681b      	ldr	r3, [r3, #0]
 8000c98:	7c3a      	ldrb	r2, [r7, #16]
 8000c9a:	3208      	adds	r2, #8
 8000c9c:	f853 1022 	ldr.w	r1, [r3, r2, lsl #2]
 8000ca0:	7bfb      	ldrb	r3, [r7, #15]
 8000ca2:	009b      	lsls	r3, r3, #2
 8000ca4:	220f      	movs	r2, #15
 8000ca6:	fa02 f303 	lsl.w	r3, r2, r3
 8000caa:	43db      	mvns	r3, r3
 8000cac:	4618      	mov	r0, r3
 8000cae:	687b      	ldr	r3, [r7, #4]
 8000cb0:	681b      	ldr	r3, [r3, #0]
 8000cb2:	7c3a      	ldrb	r2, [r7, #16]
 8000cb4:	4001      	ands	r1, r0
 8000cb6:	3208      	adds	r2, #8
 8000cb8:	f843 1022 	str.w	r1, [r3, r2, lsl #2]
			pGPIOHandle->pGPIOx->AFR[temp1] |= (pGPIOHandle->GPIO_PinConfig.GPIO_PinAltFunMode << ( 4 * temp2 ) );
 8000cbc:	687b      	ldr	r3, [r7, #4]
 8000cbe:	681b      	ldr	r3, [r3, #0]
 8000cc0:	7c3a      	ldrb	r2, [r7, #16]
 8000cc2:	3208      	adds	r2, #8
 8000cc4:	f853 1022 	ldr.w	r1, [r3, r2, lsl #2]
 8000cc8:	687b      	ldr	r3, [r7, #4]
 8000cca:	7a5b      	ldrb	r3, [r3, #9]
 8000ccc:	461a      	mov	r2, r3
 8000cce:	7bfb      	ldrb	r3, [r7, #15]
 8000cd0:	009b      	lsls	r3, r3, #2
 8000cd2:	fa02 f303 	lsl.w	r3, r2, r3
 8000cd6:	4618      	mov	r0, r3
 8000cd8:	687b      	ldr	r3, [r7, #4]
 8000cda:	681b      	ldr	r3, [r3, #0]
 8000cdc:	7c3a      	ldrb	r2, [r7, #16]
 8000cde:	4301      	orrs	r1, r0
 8000ce0:	3208      	adds	r2, #8
 8000ce2:	f843 1022 	str.w	r1, [r3, r2, lsl #2]
		}
}
 8000ce6:	bf00      	nop
 8000ce8:	3718      	adds	r7, #24
 8000cea:	46bd      	mov	sp, r7
 8000cec:	bd80      	pop	{r7, pc}
 8000cee:	bf00      	nop
 8000cf0:	40023800 	.word	0x40023800
 8000cf4:	40013800 	.word	0x40013800
 8000cf8:	40013c00 	.word	0x40013c00

08000cfc <ServoHandle>:
uint32_t j=10;
uint32_t s=90;
uint32_t checker=0;

void ServoHandle(void)
{
 8000cfc:	b580      	push	{r7, lr}
 8000cfe:	af00      	add	r7, sp, #0

	if(UD_Inc_Flg)
 8000d00:	4b72      	ldr	r3, [pc, #456]	; (8000ecc <ServoHandle+0x1d0>)
 8000d02:	781b      	ldrb	r3, [r3, #0]
 8000d04:	2b00      	cmp	r3, #0
 8000d06:	d015      	beq.n	8000d34 <ServoHandle+0x38>
	{
		x++;
 8000d08:	4b71      	ldr	r3, [pc, #452]	; (8000ed0 <ServoHandle+0x1d4>)
 8000d0a:	681b      	ldr	r3, [r3, #0]
 8000d0c:	3301      	adds	r3, #1
 8000d0e:	4a70      	ldr	r2, [pc, #448]	; (8000ed0 <ServoHandle+0x1d4>)
 8000d10:	6013      	str	r3, [r2, #0]
		x=EdgeCondition(x,NOTHAND);
 8000d12:	4b6f      	ldr	r3, [pc, #444]	; (8000ed0 <ServoHandle+0x1d4>)
 8000d14:	681b      	ldr	r3, [r3, #0]
 8000d16:	2101      	movs	r1, #1
 8000d18:	4618      	mov	r0, r3
 8000d1a:	f000 fbff 	bl	800151c <EdgeCondition>
 8000d1e:	4603      	mov	r3, r0
 8000d20:	4a6b      	ldr	r2, [pc, #428]	; (8000ed0 <ServoHandle+0x1d4>)
 8000d22:	6013      	str	r3, [r2, #0]
		ServoAngle(TIM4, x, MID);
 8000d24:	4b6a      	ldr	r3, [pc, #424]	; (8000ed0 <ServoHandle+0x1d4>)
 8000d26:	681b      	ldr	r3, [r3, #0]
 8000d28:	2201      	movs	r2, #1
 8000d2a:	4619      	mov	r1, r3
 8000d2c:	4869      	ldr	r0, [pc, #420]	; (8000ed4 <ServoHandle+0x1d8>)
 8000d2e:	f000 fdc3 	bl	80018b8 <ServoAngle>
 8000d32:	e018      	b.n	8000d66 <ServoHandle+0x6a>
	}
	else if(UD_Dec_Flg)
 8000d34:	4b68      	ldr	r3, [pc, #416]	; (8000ed8 <ServoHandle+0x1dc>)
 8000d36:	781b      	ldrb	r3, [r3, #0]
 8000d38:	2b00      	cmp	r3, #0
 8000d3a:	d014      	beq.n	8000d66 <ServoHandle+0x6a>
	{
		x--;
 8000d3c:	4b64      	ldr	r3, [pc, #400]	; (8000ed0 <ServoHandle+0x1d4>)
 8000d3e:	681b      	ldr	r3, [r3, #0]
 8000d40:	3b01      	subs	r3, #1
 8000d42:	4a63      	ldr	r2, [pc, #396]	; (8000ed0 <ServoHandle+0x1d4>)
 8000d44:	6013      	str	r3, [r2, #0]
		x=EdgeCondition(x,NOTHAND);
 8000d46:	4b62      	ldr	r3, [pc, #392]	; (8000ed0 <ServoHandle+0x1d4>)
 8000d48:	681b      	ldr	r3, [r3, #0]
 8000d4a:	2101      	movs	r1, #1
 8000d4c:	4618      	mov	r0, r3
 8000d4e:	f000 fbe5 	bl	800151c <EdgeCondition>
 8000d52:	4603      	mov	r3, r0
 8000d54:	4a5e      	ldr	r2, [pc, #376]	; (8000ed0 <ServoHandle+0x1d4>)
 8000d56:	6013      	str	r3, [r2, #0]
		ServoAngle(TIM4, x, MID);
 8000d58:	4b5d      	ldr	r3, [pc, #372]	; (8000ed0 <ServoHandle+0x1d4>)
 8000d5a:	681b      	ldr	r3, [r3, #0]
 8000d5c:	2201      	movs	r2, #1
 8000d5e:	4619      	mov	r1, r3
 8000d60:	485c      	ldr	r0, [pc, #368]	; (8000ed4 <ServoHandle+0x1d8>)
 8000d62:	f000 fda9 	bl	80018b8 <ServoAngle>
	}
	UD_Inc_Flg=0; UD_Dec_Flg=0;
 8000d66:	4b59      	ldr	r3, [pc, #356]	; (8000ecc <ServoHandle+0x1d0>)
 8000d68:	2200      	movs	r2, #0
 8000d6a:	701a      	strb	r2, [r3, #0]
 8000d6c:	4b5a      	ldr	r3, [pc, #360]	; (8000ed8 <ServoHandle+0x1dc>)
 8000d6e:	2200      	movs	r2, #0
 8000d70:	701a      	strb	r2, [r3, #0]

	if(LR_Inc_Flg)
 8000d72:	4b5a      	ldr	r3, [pc, #360]	; (8000edc <ServoHandle+0x1e0>)
 8000d74:	781b      	ldrb	r3, [r3, #0]
 8000d76:	2b00      	cmp	r3, #0
 8000d78:	d015      	beq.n	8000da6 <ServoHandle+0xaa>
	{
		y++;
 8000d7a:	4b59      	ldr	r3, [pc, #356]	; (8000ee0 <ServoHandle+0x1e4>)
 8000d7c:	681b      	ldr	r3, [r3, #0]
 8000d7e:	3301      	adds	r3, #1
 8000d80:	4a57      	ldr	r2, [pc, #348]	; (8000ee0 <ServoHandle+0x1e4>)
 8000d82:	6013      	str	r3, [r2, #0]
		y=EdgeCondition(y,NOTHAND);
 8000d84:	4b56      	ldr	r3, [pc, #344]	; (8000ee0 <ServoHandle+0x1e4>)
 8000d86:	681b      	ldr	r3, [r3, #0]
 8000d88:	2101      	movs	r1, #1
 8000d8a:	4618      	mov	r0, r3
 8000d8c:	f000 fbc6 	bl	800151c <EdgeCondition>
 8000d90:	4603      	mov	r3, r0
 8000d92:	4a53      	ldr	r2, [pc, #332]	; (8000ee0 <ServoHandle+0x1e4>)
 8000d94:	6013      	str	r3, [r2, #0]
		ServoAngle(TIM4, y, BOTTOM);
 8000d96:	4b52      	ldr	r3, [pc, #328]	; (8000ee0 <ServoHandle+0x1e4>)
 8000d98:	681b      	ldr	r3, [r3, #0]
 8000d9a:	2202      	movs	r2, #2
 8000d9c:	4619      	mov	r1, r3
 8000d9e:	484d      	ldr	r0, [pc, #308]	; (8000ed4 <ServoHandle+0x1d8>)
 8000da0:	f000 fd8a 	bl	80018b8 <ServoAngle>
 8000da4:	e018      	b.n	8000dd8 <ServoHandle+0xdc>
	}
	else if(LR_Dec_Flg)
 8000da6:	4b4f      	ldr	r3, [pc, #316]	; (8000ee4 <ServoHandle+0x1e8>)
 8000da8:	781b      	ldrb	r3, [r3, #0]
 8000daa:	2b00      	cmp	r3, #0
 8000dac:	d014      	beq.n	8000dd8 <ServoHandle+0xdc>
	{
		y--;
 8000dae:	4b4c      	ldr	r3, [pc, #304]	; (8000ee0 <ServoHandle+0x1e4>)
 8000db0:	681b      	ldr	r3, [r3, #0]
 8000db2:	3b01      	subs	r3, #1
 8000db4:	4a4a      	ldr	r2, [pc, #296]	; (8000ee0 <ServoHandle+0x1e4>)
 8000db6:	6013      	str	r3, [r2, #0]
		y=EdgeCondition(y,NOTHAND);
 8000db8:	4b49      	ldr	r3, [pc, #292]	; (8000ee0 <ServoHandle+0x1e4>)
 8000dba:	681b      	ldr	r3, [r3, #0]
 8000dbc:	2101      	movs	r1, #1
 8000dbe:	4618      	mov	r0, r3
 8000dc0:	f000 fbac 	bl	800151c <EdgeCondition>
 8000dc4:	4603      	mov	r3, r0
 8000dc6:	4a46      	ldr	r2, [pc, #280]	; (8000ee0 <ServoHandle+0x1e4>)
 8000dc8:	6013      	str	r3, [r2, #0]
		ServoAngle(TIM4, y, BOTTOM);
 8000dca:	4b45      	ldr	r3, [pc, #276]	; (8000ee0 <ServoHandle+0x1e4>)
 8000dcc:	681b      	ldr	r3, [r3, #0]
 8000dce:	2202      	movs	r2, #2
 8000dd0:	4619      	mov	r1, r3
 8000dd2:	4840      	ldr	r0, [pc, #256]	; (8000ed4 <ServoHandle+0x1d8>)
 8000dd4:	f000 fd70 	bl	80018b8 <ServoAngle>
	}
	LR_Inc_Flg=0; LR_Dec_Flg=0;
 8000dd8:	4b40      	ldr	r3, [pc, #256]	; (8000edc <ServoHandle+0x1e0>)
 8000dda:	2200      	movs	r2, #0
 8000ddc:	701a      	strb	r2, [r3, #0]
 8000dde:	4b41      	ldr	r3, [pc, #260]	; (8000ee4 <ServoHandle+0x1e8>)
 8000de0:	2200      	movs	r2, #0
 8000de2:	701a      	strb	r2, [r3, #0]

	if(Wrist_Inc_Flg)
 8000de4:	4b40      	ldr	r3, [pc, #256]	; (8000ee8 <ServoHandle+0x1ec>)
 8000de6:	781b      	ldrb	r3, [r3, #0]
 8000de8:	2b00      	cmp	r3, #0
 8000dea:	d015      	beq.n	8000e18 <ServoHandle+0x11c>
	{
		j++;
 8000dec:	4b3f      	ldr	r3, [pc, #252]	; (8000eec <ServoHandle+0x1f0>)
 8000dee:	681b      	ldr	r3, [r3, #0]
 8000df0:	3301      	adds	r3, #1
 8000df2:	4a3e      	ldr	r2, [pc, #248]	; (8000eec <ServoHandle+0x1f0>)
 8000df4:	6013      	str	r3, [r2, #0]
		j=EdgeCondition(j,NOTHAND);
 8000df6:	4b3d      	ldr	r3, [pc, #244]	; (8000eec <ServoHandle+0x1f0>)
 8000df8:	681b      	ldr	r3, [r3, #0]
 8000dfa:	2101      	movs	r1, #1
 8000dfc:	4618      	mov	r0, r3
 8000dfe:	f000 fb8d 	bl	800151c <EdgeCondition>
 8000e02:	4603      	mov	r3, r0
 8000e04:	4a39      	ldr	r2, [pc, #228]	; (8000eec <ServoHandle+0x1f0>)
 8000e06:	6013      	str	r3, [r2, #0]
		ServoAngle(TIM4, j,TOP);
 8000e08:	4b38      	ldr	r3, [pc, #224]	; (8000eec <ServoHandle+0x1f0>)
 8000e0a:	681b      	ldr	r3, [r3, #0]
 8000e0c:	2203      	movs	r2, #3
 8000e0e:	4619      	mov	r1, r3
 8000e10:	4830      	ldr	r0, [pc, #192]	; (8000ed4 <ServoHandle+0x1d8>)
 8000e12:	f000 fd51 	bl	80018b8 <ServoAngle>
 8000e16:	e018      	b.n	8000e4a <ServoHandle+0x14e>
	}
	else if(Wrist_Dec_Flg)
 8000e18:	4b35      	ldr	r3, [pc, #212]	; (8000ef0 <ServoHandle+0x1f4>)
 8000e1a:	781b      	ldrb	r3, [r3, #0]
 8000e1c:	2b00      	cmp	r3, #0
 8000e1e:	d014      	beq.n	8000e4a <ServoHandle+0x14e>
	{
		j--;
 8000e20:	4b32      	ldr	r3, [pc, #200]	; (8000eec <ServoHandle+0x1f0>)
 8000e22:	681b      	ldr	r3, [r3, #0]
 8000e24:	3b01      	subs	r3, #1
 8000e26:	4a31      	ldr	r2, [pc, #196]	; (8000eec <ServoHandle+0x1f0>)
 8000e28:	6013      	str	r3, [r2, #0]
		j=EdgeCondition(j,NOTHAND);
 8000e2a:	4b30      	ldr	r3, [pc, #192]	; (8000eec <ServoHandle+0x1f0>)
 8000e2c:	681b      	ldr	r3, [r3, #0]
 8000e2e:	2101      	movs	r1, #1
 8000e30:	4618      	mov	r0, r3
 8000e32:	f000 fb73 	bl	800151c <EdgeCondition>
 8000e36:	4603      	mov	r3, r0
 8000e38:	4a2c      	ldr	r2, [pc, #176]	; (8000eec <ServoHandle+0x1f0>)
 8000e3a:	6013      	str	r3, [r2, #0]
		ServoAngle(TIM4, j,TOP);
 8000e3c:	4b2b      	ldr	r3, [pc, #172]	; (8000eec <ServoHandle+0x1f0>)
 8000e3e:	681b      	ldr	r3, [r3, #0]
 8000e40:	2203      	movs	r2, #3
 8000e42:	4619      	mov	r1, r3
 8000e44:	4823      	ldr	r0, [pc, #140]	; (8000ed4 <ServoHandle+0x1d8>)
 8000e46:	f000 fd37 	bl	80018b8 <ServoAngle>
	}
	Wrist_Inc_Flg=0; Wrist_Dec_Flg=0;
 8000e4a:	4b27      	ldr	r3, [pc, #156]	; (8000ee8 <ServoHandle+0x1ec>)
 8000e4c:	2200      	movs	r2, #0
 8000e4e:	701a      	strb	r2, [r3, #0]
 8000e50:	4b27      	ldr	r3, [pc, #156]	; (8000ef0 <ServoHandle+0x1f4>)
 8000e52:	2200      	movs	r2, #0
 8000e54:	701a      	strb	r2, [r3, #0]

	if(Hand_Inc_Flg)
 8000e56:	4b27      	ldr	r3, [pc, #156]	; (8000ef4 <ServoHandle+0x1f8>)
 8000e58:	781b      	ldrb	r3, [r3, #0]
 8000e5a:	2b00      	cmp	r3, #0
 8000e5c:	d015      	beq.n	8000e8a <ServoHandle+0x18e>
	{
		s++;
 8000e5e:	4b26      	ldr	r3, [pc, #152]	; (8000ef8 <ServoHandle+0x1fc>)
 8000e60:	681b      	ldr	r3, [r3, #0]
 8000e62:	3301      	adds	r3, #1
 8000e64:	4a24      	ldr	r2, [pc, #144]	; (8000ef8 <ServoHandle+0x1fc>)
 8000e66:	6013      	str	r3, [r2, #0]
		s=EdgeCondition(s,HAND);
 8000e68:	4b23      	ldr	r3, [pc, #140]	; (8000ef8 <ServoHandle+0x1fc>)
 8000e6a:	681b      	ldr	r3, [r3, #0]
 8000e6c:	2102      	movs	r1, #2
 8000e6e:	4618      	mov	r0, r3
 8000e70:	f000 fb54 	bl	800151c <EdgeCondition>
 8000e74:	4603      	mov	r3, r0
 8000e76:	4a20      	ldr	r2, [pc, #128]	; (8000ef8 <ServoHandle+0x1fc>)
 8000e78:	6013      	str	r3, [r2, #0]
		ServoAngle(TIM4, s, GRIP);
 8000e7a:	4b1f      	ldr	r3, [pc, #124]	; (8000ef8 <ServoHandle+0x1fc>)
 8000e7c:	681b      	ldr	r3, [r3, #0]
 8000e7e:	2204      	movs	r2, #4
 8000e80:	4619      	mov	r1, r3
 8000e82:	4814      	ldr	r0, [pc, #80]	; (8000ed4 <ServoHandle+0x1d8>)
 8000e84:	f000 fd18 	bl	80018b8 <ServoAngle>
 8000e88:	e018      	b.n	8000ebc <ServoHandle+0x1c0>
	}
	else if(Hand_Dec_Flg)
 8000e8a:	4b1c      	ldr	r3, [pc, #112]	; (8000efc <ServoHandle+0x200>)
 8000e8c:	781b      	ldrb	r3, [r3, #0]
 8000e8e:	2b00      	cmp	r3, #0
 8000e90:	d014      	beq.n	8000ebc <ServoHandle+0x1c0>
	{
		s--;
 8000e92:	4b19      	ldr	r3, [pc, #100]	; (8000ef8 <ServoHandle+0x1fc>)
 8000e94:	681b      	ldr	r3, [r3, #0]
 8000e96:	3b01      	subs	r3, #1
 8000e98:	4a17      	ldr	r2, [pc, #92]	; (8000ef8 <ServoHandle+0x1fc>)
 8000e9a:	6013      	str	r3, [r2, #0]
		s=EdgeCondition(s,HAND);
 8000e9c:	4b16      	ldr	r3, [pc, #88]	; (8000ef8 <ServoHandle+0x1fc>)
 8000e9e:	681b      	ldr	r3, [r3, #0]
 8000ea0:	2102      	movs	r1, #2
 8000ea2:	4618      	mov	r0, r3
 8000ea4:	f000 fb3a 	bl	800151c <EdgeCondition>
 8000ea8:	4603      	mov	r3, r0
 8000eaa:	4a13      	ldr	r2, [pc, #76]	; (8000ef8 <ServoHandle+0x1fc>)
 8000eac:	6013      	str	r3, [r2, #0]
		ServoAngle(TIM4, s, GRIP);
 8000eae:	4b12      	ldr	r3, [pc, #72]	; (8000ef8 <ServoHandle+0x1fc>)
 8000eb0:	681b      	ldr	r3, [r3, #0]
 8000eb2:	2204      	movs	r2, #4
 8000eb4:	4619      	mov	r1, r3
 8000eb6:	4807      	ldr	r0, [pc, #28]	; (8000ed4 <ServoHandle+0x1d8>)
 8000eb8:	f000 fcfe 	bl	80018b8 <ServoAngle>
	}
	Hand_Inc_Flg = 0; Hand_Dec_Flg=0;
 8000ebc:	4b0d      	ldr	r3, [pc, #52]	; (8000ef4 <ServoHandle+0x1f8>)
 8000ebe:	2200      	movs	r2, #0
 8000ec0:	701a      	strb	r2, [r3, #0]
 8000ec2:	4b0e      	ldr	r3, [pc, #56]	; (8000efc <ServoHandle+0x200>)
 8000ec4:	2200      	movs	r2, #0
 8000ec6:	701a      	strb	r2, [r3, #0]
}
 8000ec8:	bf00      	nop
 8000eca:	bd80      	pop	{r7, pc}
 8000ecc:	2000002c 	.word	0x2000002c
 8000ed0:	20000000 	.word	0x20000000
 8000ed4:	40000800 	.word	0x40000800
 8000ed8:	20000033 	.word	0x20000033
 8000edc:	20000032 	.word	0x20000032
 8000ee0:	20000004 	.word	0x20000004
 8000ee4:	20000030 	.word	0x20000030
 8000ee8:	2000002e 	.word	0x2000002e
 8000eec:	20000008 	.word	0x20000008
 8000ef0:	20000031 	.word	0x20000031
 8000ef4:	2000002d 	.word	0x2000002d
 8000ef8:	2000000c 	.word	0x2000000c
 8000efc:	2000002f 	.word	0x2000002f

08000f00 <GPIOInits>:

void GPIOInits(void)
{
 8000f00:	b580      	push	{r7, lr}
 8000f02:	b084      	sub	sp, #16
 8000f04:	af00      	add	r7, sp, #0
	GPIO_Handler_t ADCPins;

	ADCPins.pGPIOx = GPIOA;
 8000f06:	4b14      	ldr	r3, [pc, #80]	; (8000f58 <GPIOInits+0x58>)
 8000f08:	607b      	str	r3, [r7, #4]

	ADCPins.GPIO_PinConfig.GPIO_PinMode = ANALOG;
 8000f0a:	2303      	movs	r3, #3
 8000f0c:	727b      	strb	r3, [r7, #9]
	ADCPins.GPIO_PinConfig.GPIO_PinAltFunMode = AF0;
 8000f0e:	2300      	movs	r3, #0
 8000f10:	737b      	strb	r3, [r7, #13]
	ADCPins.GPIO_PinConfig.GPIO_PinOPType = PUSHPULL;
 8000f12:	2300      	movs	r3, #0
 8000f14:	733b      	strb	r3, [r7, #12]
	ADCPins.GPIO_PinConfig.GPIO_pinPuPdControl = NOPUPD;
 8000f16:	2300      	movs	r3, #0
 8000f18:	72fb      	strb	r3, [r7, #11]
	ADCPins.GPIO_PinConfig.GPIO_PinSpeed = SPEEDHIGH;
 8000f1a:	2303      	movs	r3, #3
 8000f1c:	72bb      	strb	r3, [r7, #10]

	//PWM Pin config
	ADCPins.GPIO_PinConfig.GPIO_PinNumber = 1;
 8000f1e:	2301      	movs	r3, #1
 8000f20:	723b      	strb	r3, [r7, #8]
	GPIO_Init(&ADCPins);
 8000f22:	1d3b      	adds	r3, r7, #4
 8000f24:	4618      	mov	r0, r3
 8000f26:	f7ff fd4d 	bl	80009c4 <GPIO_Init>

	ADCPins.GPIO_PinConfig.GPIO_PinNumber = 3;
 8000f2a:	2303      	movs	r3, #3
 8000f2c:	723b      	strb	r3, [r7, #8]
	GPIO_Init(&ADCPins);
 8000f2e:	1d3b      	adds	r3, r7, #4
 8000f30:	4618      	mov	r0, r3
 8000f32:	f7ff fd47 	bl	80009c4 <GPIO_Init>

	ADCPins.GPIO_PinConfig.GPIO_PinNumber = 5;
 8000f36:	2305      	movs	r3, #5
 8000f38:	723b      	strb	r3, [r7, #8]
	GPIO_Init(&ADCPins);
 8000f3a:	1d3b      	adds	r3, r7, #4
 8000f3c:	4618      	mov	r0, r3
 8000f3e:	f7ff fd41 	bl	80009c4 <GPIO_Init>

	ADCPins.GPIO_PinConfig.GPIO_PinNumber = 7;
 8000f42:	2307      	movs	r3, #7
 8000f44:	723b      	strb	r3, [r7, #8]
	GPIO_Init(&ADCPins);
 8000f46:	1d3b      	adds	r3, r7, #4
 8000f48:	4618      	mov	r0, r3
 8000f4a:	f7ff fd3b 	bl	80009c4 <GPIO_Init>
}
 8000f4e:	bf00      	nop
 8000f50:	3710      	adds	r7, #16
 8000f52:	46bd      	mov	sp, r7
 8000f54:	bd80      	pop	{r7, pc}
 8000f56:	bf00      	nop
 8000f58:	40020000 	.word	0x40020000

08000f5c <PWM_GPIOInits>:

void PWM_GPIOInits(void)
{
 8000f5c:	b580      	push	{r7, lr}
 8000f5e:	b084      	sub	sp, #16
 8000f60:	af00      	add	r7, sp, #0
	GPIO_Handler_t PWMPins;

	PWMPins.pGPIOx = GPIOB;
 8000f62:	4b14      	ldr	r3, [pc, #80]	; (8000fb4 <PWM_GPIOInits+0x58>)
 8000f64:	607b      	str	r3, [r7, #4]

	PWMPins.GPIO_PinConfig.GPIO_PinMode = ALTFUNC;
 8000f66:	2302      	movs	r3, #2
 8000f68:	727b      	strb	r3, [r7, #9]
	PWMPins.GPIO_PinConfig.GPIO_PinAltFunMode = AF2;
 8000f6a:	2302      	movs	r3, #2
 8000f6c:	737b      	strb	r3, [r7, #13]
	PWMPins.GPIO_PinConfig.GPIO_PinOPType = PUSHPULL;
 8000f6e:	2300      	movs	r3, #0
 8000f70:	733b      	strb	r3, [r7, #12]
	PWMPins.GPIO_PinConfig.GPIO_pinPuPdControl = NOPUPD;
 8000f72:	2300      	movs	r3, #0
 8000f74:	72fb      	strb	r3, [r7, #11]
	PWMPins.GPIO_PinConfig.GPIO_PinSpeed = SPEEDHIGH;  //might need to look into this
 8000f76:	2303      	movs	r3, #3
 8000f78:	72bb      	strb	r3, [r7, #10]

	//PWM Pin config
	PWMPins.GPIO_PinConfig.GPIO_PinNumber = 6;
 8000f7a:	2306      	movs	r3, #6
 8000f7c:	723b      	strb	r3, [r7, #8]
	GPIO_Init(&PWMPins);
 8000f7e:	1d3b      	adds	r3, r7, #4
 8000f80:	4618      	mov	r0, r3
 8000f82:	f7ff fd1f 	bl	80009c4 <GPIO_Init>

	PWMPins.GPIO_PinConfig.GPIO_PinNumber = 7;
 8000f86:	2307      	movs	r3, #7
 8000f88:	723b      	strb	r3, [r7, #8]
	GPIO_Init(&PWMPins);
 8000f8a:	1d3b      	adds	r3, r7, #4
 8000f8c:	4618      	mov	r0, r3
 8000f8e:	f7ff fd19 	bl	80009c4 <GPIO_Init>

	PWMPins.GPIO_PinConfig.GPIO_PinNumber = 8;
 8000f92:	2308      	movs	r3, #8
 8000f94:	723b      	strb	r3, [r7, #8]
	GPIO_Init(&PWMPins);
 8000f96:	1d3b      	adds	r3, r7, #4
 8000f98:	4618      	mov	r0, r3
 8000f9a:	f7ff fd13 	bl	80009c4 <GPIO_Init>

	PWMPins.GPIO_PinConfig.GPIO_PinNumber = 9;
 8000f9e:	2309      	movs	r3, #9
 8000fa0:	723b      	strb	r3, [r7, #8]
	GPIO_Init(&PWMPins);
 8000fa2:	1d3b      	adds	r3, r7, #4
 8000fa4:	4618      	mov	r0, r3
 8000fa6:	f7ff fd0d 	bl	80009c4 <GPIO_Init>
}
 8000faa:	bf00      	nop
 8000fac:	3710      	adds	r7, #16
 8000fae:	46bd      	mov	sp, r7
 8000fb0:	bd80      	pop	{r7, pc}
 8000fb2:	bf00      	nop
 8000fb4:	40020400 	.word	0x40020400

08000fb8 <PWMTIM>:

void PWMTIM(void)
{
 8000fb8:	b580      	push	{r7, lr}
 8000fba:	b086      	sub	sp, #24
 8000fbc:	af00      	add	r7, sp, #0
	TIM_Handler_t TIMPWM;

	TIMPWM.pTIMx = TIM4;
 8000fbe:	4b16      	ldr	r3, [pc, #88]	; (8001018 <PWMTIM+0x60>)
 8000fc0:	607b      	str	r3, [r7, #4]
	TIMPWM.TIM_Config.TIM_Direction = UPCNT;
 8000fc2:	2300      	movs	r3, #0
 8000fc4:	757b      	strb	r3, [r7, #21]
	TIMPWM.TIM_Config.TIM_ARR = 479;
 8000fc6:	f240 13df 	movw	r3, #479	; 0x1df
 8000fca:	60bb      	str	r3, [r7, #8]
	TIMPWM.TIM_Config.TIM_Prescaler = 99;
 8000fcc:	2363      	movs	r3, #99	; 0x63
 8000fce:	81bb      	strh	r3, [r7, #12]
	TIMPWM.TIM_Config.TIM_Mode = EDGE;
 8000fd0:	2300      	movs	r3, #0
 8000fd2:	753b      	strb	r3, [r7, #20]
	TIMPWM.TIM_Config.PWM_Mode = PWM1;
 8000fd4:	2306      	movs	r3, #6
 8000fd6:	75bb      	strb	r3, [r7, #22]
	TIMPWM.TIM_Config.TIM_RestPostion = DISABLE;
 8000fd8:	2300      	movs	r3, #0
 8000fda:	613b      	str	r3, [r7, #16]
	TIMPWM.TIM_Config.TIM_Polarity = POLHIGH;
 8000fdc:	2300      	movs	r3, #0
 8000fde:	73bb      	strb	r3, [r7, #14]
	TIMPWM.TIM_Config.PWM_Channel = 1;
 8000fe0:	2301      	movs	r3, #1
 8000fe2:	75fb      	strb	r3, [r7, #23]

	PWM2_5_Init(&TIMPWM);
 8000fe4:	1d3b      	adds	r3, r7, #4
 8000fe6:	4618      	mov	r0, r3
 8000fe8:	f000 fb36 	bl	8001658 <PWM2_5_Init>

	TIMPWM.TIM_Config.PWM_Channel = 2;
 8000fec:	2302      	movs	r3, #2
 8000fee:	75fb      	strb	r3, [r7, #23]

	PWM2_5_Init(&TIMPWM);
 8000ff0:	1d3b      	adds	r3, r7, #4
 8000ff2:	4618      	mov	r0, r3
 8000ff4:	f000 fb30 	bl	8001658 <PWM2_5_Init>

	TIMPWM.TIM_Config.PWM_Channel = 3;
 8000ff8:	2303      	movs	r3, #3
 8000ffa:	75fb      	strb	r3, [r7, #23]

	PWM2_5_Init(&TIMPWM);
 8000ffc:	1d3b      	adds	r3, r7, #4
 8000ffe:	4618      	mov	r0, r3
 8001000:	f000 fb2a 	bl	8001658 <PWM2_5_Init>

	TIMPWM.TIM_Config.PWM_Channel = 4;
 8001004:	2304      	movs	r3, #4
 8001006:	75fb      	strb	r3, [r7, #23]

	PWM2_5_Init(&TIMPWM);
 8001008:	1d3b      	adds	r3, r7, #4
 800100a:	4618      	mov	r0, r3
 800100c:	f000 fb24 	bl	8001658 <PWM2_5_Init>
}
 8001010:	bf00      	nop
 8001012:	3718      	adds	r7, #24
 8001014:	46bd      	mov	sp, r7
 8001016:	bd80      	pop	{r7, pc}
 8001018:	40000800 	.word	0x40000800

0800101c <main>:


int main(void)
{
 800101c:	b580      	push	{r7, lr}
 800101e:	af00      	add	r7, sp, #0
	GPIOInits();
 8001020:	f7ff ff6e 	bl	8000f00 <GPIOInits>
	ADC_Clk_EnorDi(ADC1, ENABLE);
 8001024:	2101      	movs	r1, #1
 8001026:	480d      	ldr	r0, [pc, #52]	; (800105c <main+0x40>)
 8001028:	f000 f86e 	bl	8001108 <ADC_Clk_EnorDi>
	PWM_GPIOInits();
 800102c:	f7ff ff96 	bl	8000f5c <PWM_GPIOInits>
	TIM2_5_CLKEnable(TIM4, ENABLE); //Enables HSI and TIM3 peripheral clock
 8001030:	2101      	movs	r1, #1
 8001032:	480b      	ldr	r0, [pc, #44]	; (8001060 <main+0x44>)
 8001034:	f000 fa9c 	bl	8001570 <TIM2_5_CLKEnable>
	PWMTIM();
 8001038:	f7ff ffbe 	bl	8000fb8 <PWMTIM>

	while(1)
	{
		ADC_Init_LR(ADC1);
 800103c:	4807      	ldr	r0, [pc, #28]	; (800105c <main+0x40>)
 800103e:	f000 f8bd 	bl	80011bc <ADC_Init_LR>

		ADC_Init_UD(ADC1);
 8001042:	4806      	ldr	r0, [pc, #24]	; (800105c <main+0x40>)
 8001044:	f000 f926 	bl	8001294 <ADC_Init_UD>

		ADC_Wrist(ADC1);
 8001048:	4804      	ldr	r0, [pc, #16]	; (800105c <main+0x40>)
 800104a:	f000 f98f 	bl	800136c <ADC_Wrist>

		ADC_Hand(ADC1);
 800104e:	4803      	ldr	r0, [pc, #12]	; (800105c <main+0x40>)
 8001050:	f000 f9f8 	bl	8001444 <ADC_Hand>

		ServoHandle();
 8001054:	f7ff fe52 	bl	8000cfc <ServoHandle>
		ADC_Init_LR(ADC1);
 8001058:	e7f0      	b.n	800103c <main+0x20>
 800105a:	bf00      	nop
 800105c:	40012000 	.word	0x40012000
 8001060:	40000800 	.word	0x40000800

08001064 <Reset_Handler>:

  .section .text.Reset_Handler
  .weak Reset_Handler
  .type Reset_Handler, %function
Reset_Handler:
  ldr   r0, =_estack
 8001064:	480d      	ldr	r0, [pc, #52]	; (800109c <LoopForever+0x2>)
  mov   sp, r0          /* set stack pointer */
 8001066:	4685      	mov	sp, r0
/* Call the clock system intitialization function.*/
  bl  SystemInit
 8001068:	f3af 8000 	nop.w

/* Copy the data segment initializers from flash to SRAM */
  ldr r0, =_sdata
 800106c:	480c      	ldr	r0, [pc, #48]	; (80010a0 <LoopForever+0x6>)
  ldr r1, =_edata
 800106e:	490d      	ldr	r1, [pc, #52]	; (80010a4 <LoopForever+0xa>)
  ldr r2, =_sidata
 8001070:	4a0d      	ldr	r2, [pc, #52]	; (80010a8 <LoopForever+0xe>)
  movs r3, #0
 8001072:	2300      	movs	r3, #0
  b LoopCopyDataInit
 8001074:	e002      	b.n	800107c <LoopCopyDataInit>

08001076 <CopyDataInit>:

CopyDataInit:
  ldr r4, [r2, r3]
 8001076:	58d4      	ldr	r4, [r2, r3]
  str r4, [r0, r3]
 8001078:	50c4      	str	r4, [r0, r3]
  adds r3, r3, #4
 800107a:	3304      	adds	r3, #4

0800107c <LoopCopyDataInit>:

LoopCopyDataInit:
  adds r4, r0, r3
 800107c:	18c4      	adds	r4, r0, r3
  cmp r4, r1
 800107e:	428c      	cmp	r4, r1
  bcc CopyDataInit
 8001080:	d3f9      	bcc.n	8001076 <CopyDataInit>

/* Zero fill the bss segment. */
  ldr r2, =_sbss
 8001082:	4a0a      	ldr	r2, [pc, #40]	; (80010ac <LoopForever+0x12>)
  ldr r4, =_ebss
 8001084:	4c0a      	ldr	r4, [pc, #40]	; (80010b0 <LoopForever+0x16>)
  movs r3, #0
 8001086:	2300      	movs	r3, #0
  b LoopFillZerobss
 8001088:	e001      	b.n	800108e <LoopFillZerobss>

0800108a <FillZerobss>:

FillZerobss:
  str  r3, [r2]
 800108a:	6013      	str	r3, [r2, #0]
  adds r2, r2, #4
 800108c:	3204      	adds	r2, #4

0800108e <LoopFillZerobss>:

LoopFillZerobss:
  cmp r2, r4
 800108e:	42a2      	cmp	r2, r4
  bcc FillZerobss
 8001090:	d3fb      	bcc.n	800108a <FillZerobss>

/* Call static constructors */
  bl __libc_init_array
 8001092:	f000 fc57 	bl	8001944 <__libc_init_array>
/* Call the application's entry point.*/
  bl main
 8001096:	f7ff ffc1 	bl	800101c <main>

0800109a <LoopForever>:

LoopForever:
    b LoopForever
 800109a:	e7fe      	b.n	800109a <LoopForever>
  ldr   r0, =_estack
 800109c:	20020000 	.word	0x20020000
  ldr r0, =_sdata
 80010a0:	20000000 	.word	0x20000000
  ldr r1, =_edata
 80010a4:	20000010 	.word	0x20000010
  ldr r2, =_sidata
 80010a8:	080019ac 	.word	0x080019ac
  ldr r2, =_sbss
 80010ac:	20000010 	.word	0x20000010
  ldr r4, =_ebss
 80010b0:	20000034 	.word	0x20000034

080010b4 <ADC_IRQHandler>:
 * @retval : None
*/
  .section .text.Default_Handler,"ax",%progbits
Default_Handler:
Infinite_Loop:
  b Infinite_Loop
 80010b4:	e7fe      	b.n	80010b4 <ADC_IRQHandler>

080010b6 <delay2>:
#include "stm32f407xx_ADC_driver.h"

void delay2(void)
{
 80010b6:	b480      	push	{r7}
 80010b8:	b083      	sub	sp, #12
 80010ba:	af00      	add	r7, sp, #0
	for(uint32_t i = 0 ; i < 5000 ; i ++);
 80010bc:	2300      	movs	r3, #0
 80010be:	607b      	str	r3, [r7, #4]
 80010c0:	e002      	b.n	80010c8 <delay2+0x12>
 80010c2:	687b      	ldr	r3, [r7, #4]
 80010c4:	3301      	adds	r3, #1
 80010c6:	607b      	str	r3, [r7, #4]
 80010c8:	687b      	ldr	r3, [r7, #4]
 80010ca:	f241 3287 	movw	r2, #4999	; 0x1387
 80010ce:	4293      	cmp	r3, r2
 80010d0:	d9f7      	bls.n	80010c2 <delay2+0xc>
}
 80010d2:	bf00      	nop
 80010d4:	bf00      	nop
 80010d6:	370c      	adds	r7, #12
 80010d8:	46bd      	mov	sp, r7
 80010da:	bc80      	pop	{r7}
 80010dc:	4770      	bx	lr

080010de <delay1>:

void delay1(void)
{
 80010de:	b480      	push	{r7}
 80010e0:	b083      	sub	sp, #12
 80010e2:	af00      	add	r7, sp, #0
	for(uint32_t i = 0 ; i < 10000 ; i ++);
 80010e4:	2300      	movs	r3, #0
 80010e6:	607b      	str	r3, [r7, #4]
 80010e8:	e002      	b.n	80010f0 <delay1+0x12>
 80010ea:	687b      	ldr	r3, [r7, #4]
 80010ec:	3301      	adds	r3, #1
 80010ee:	607b      	str	r3, [r7, #4]
 80010f0:	687b      	ldr	r3, [r7, #4]
 80010f2:	f242 720f 	movw	r2, #9999	; 0x270f
 80010f6:	4293      	cmp	r3, r2
 80010f8:	d9f7      	bls.n	80010ea <delay1+0xc>
}
 80010fa:	bf00      	nop
 80010fc:	bf00      	nop
 80010fe:	370c      	adds	r7, #12
 8001100:	46bd      	mov	sp, r7
 8001102:	bc80      	pop	{r7}
 8001104:	4770      	bx	lr
	...

08001108 <ADC_Clk_EnorDi>:

void ADC_Clk_EnorDi(ADC_RegDef_t *pADCx, uint8_t EnorDi)
{
 8001108:	b480      	push	{r7}
 800110a:	b083      	sub	sp, #12
 800110c:	af00      	add	r7, sp, #0
 800110e:	6078      	str	r0, [r7, #4]
 8001110:	460b      	mov	r3, r1
 8001112:	70fb      	strb	r3, [r7, #3]
	if(EnorDi==ENABLE)
 8001114:	78fb      	ldrb	r3, [r7, #3]
 8001116:	2b01      	cmp	r3, #1
 8001118:	d120      	bne.n	800115c <ADC_Clk_EnorDi+0x54>
	{
		if(pADCx == ADC1)
 800111a:	687b      	ldr	r3, [r7, #4]
 800111c:	4a23      	ldr	r2, [pc, #140]	; (80011ac <ADC_Clk_EnorDi+0xa4>)
 800111e:	4293      	cmp	r3, r2
 8001120:	d106      	bne.n	8001130 <ADC_Clk_EnorDi+0x28>
		{
			ADC1_CLK_EN();
 8001122:	4b23      	ldr	r3, [pc, #140]	; (80011b0 <ADC_Clk_EnorDi+0xa8>)
 8001124:	6c5b      	ldr	r3, [r3, #68]	; 0x44
 8001126:	4a22      	ldr	r2, [pc, #136]	; (80011b0 <ADC_Clk_EnorDi+0xa8>)
 8001128:	f443 7380 	orr.w	r3, r3, #256	; 0x100
 800112c:	6453      	str	r3, [r2, #68]	; 0x44
		else if(pADCx == ADC3)
		{
			ADC3_CLK_DI();
		}
	}
}
 800112e:	e038      	b.n	80011a2 <ADC_Clk_EnorDi+0x9a>
		else if(pADCx == ADC2)
 8001130:	687b      	ldr	r3, [r7, #4]
 8001132:	4a20      	ldr	r2, [pc, #128]	; (80011b4 <ADC_Clk_EnorDi+0xac>)
 8001134:	4293      	cmp	r3, r2
 8001136:	d106      	bne.n	8001146 <ADC_Clk_EnorDi+0x3e>
			ADC2_CLK_EN();
 8001138:	4b1d      	ldr	r3, [pc, #116]	; (80011b0 <ADC_Clk_EnorDi+0xa8>)
 800113a:	6c5b      	ldr	r3, [r3, #68]	; 0x44
 800113c:	4a1c      	ldr	r2, [pc, #112]	; (80011b0 <ADC_Clk_EnorDi+0xa8>)
 800113e:	f443 7300 	orr.w	r3, r3, #512	; 0x200
 8001142:	6453      	str	r3, [r2, #68]	; 0x44
}
 8001144:	e02d      	b.n	80011a2 <ADC_Clk_EnorDi+0x9a>
		else if(pADCx == ADC3)
 8001146:	687b      	ldr	r3, [r7, #4]
 8001148:	4a1b      	ldr	r2, [pc, #108]	; (80011b8 <ADC_Clk_EnorDi+0xb0>)
 800114a:	4293      	cmp	r3, r2
 800114c:	d129      	bne.n	80011a2 <ADC_Clk_EnorDi+0x9a>
			ADC3_CLK_EN();
 800114e:	4b18      	ldr	r3, [pc, #96]	; (80011b0 <ADC_Clk_EnorDi+0xa8>)
 8001150:	6c5b      	ldr	r3, [r3, #68]	; 0x44
 8001152:	4a17      	ldr	r2, [pc, #92]	; (80011b0 <ADC_Clk_EnorDi+0xa8>)
 8001154:	f443 6380 	orr.w	r3, r3, #1024	; 0x400
 8001158:	6453      	str	r3, [r2, #68]	; 0x44
}
 800115a:	e022      	b.n	80011a2 <ADC_Clk_EnorDi+0x9a>
	else if(EnorDi==DISABLE)
 800115c:	78fb      	ldrb	r3, [r7, #3]
 800115e:	2b00      	cmp	r3, #0
 8001160:	d11f      	bne.n	80011a2 <ADC_Clk_EnorDi+0x9a>
		if(pADCx == ADC1)
 8001162:	687b      	ldr	r3, [r7, #4]
 8001164:	4a11      	ldr	r2, [pc, #68]	; (80011ac <ADC_Clk_EnorDi+0xa4>)
 8001166:	4293      	cmp	r3, r2
 8001168:	d106      	bne.n	8001178 <ADC_Clk_EnorDi+0x70>
			ADC1_CLK_DI();
 800116a:	4b11      	ldr	r3, [pc, #68]	; (80011b0 <ADC_Clk_EnorDi+0xa8>)
 800116c:	6c5b      	ldr	r3, [r3, #68]	; 0x44
 800116e:	4a10      	ldr	r2, [pc, #64]	; (80011b0 <ADC_Clk_EnorDi+0xa8>)
 8001170:	f423 7380 	bic.w	r3, r3, #256	; 0x100
 8001174:	6453      	str	r3, [r2, #68]	; 0x44
}
 8001176:	e014      	b.n	80011a2 <ADC_Clk_EnorDi+0x9a>
		else if(pADCx == ADC2)
 8001178:	687b      	ldr	r3, [r7, #4]
 800117a:	4a0e      	ldr	r2, [pc, #56]	; (80011b4 <ADC_Clk_EnorDi+0xac>)
 800117c:	4293      	cmp	r3, r2
 800117e:	d106      	bne.n	800118e <ADC_Clk_EnorDi+0x86>
			ADC2_CLK_DI();
 8001180:	4b0b      	ldr	r3, [pc, #44]	; (80011b0 <ADC_Clk_EnorDi+0xa8>)
 8001182:	6c5b      	ldr	r3, [r3, #68]	; 0x44
 8001184:	4a0a      	ldr	r2, [pc, #40]	; (80011b0 <ADC_Clk_EnorDi+0xa8>)
 8001186:	f423 7300 	bic.w	r3, r3, #512	; 0x200
 800118a:	6453      	str	r3, [r2, #68]	; 0x44
}
 800118c:	e009      	b.n	80011a2 <ADC_Clk_EnorDi+0x9a>
		else if(pADCx == ADC3)
 800118e:	687b      	ldr	r3, [r7, #4]
 8001190:	4a09      	ldr	r2, [pc, #36]	; (80011b8 <ADC_Clk_EnorDi+0xb0>)
 8001192:	4293      	cmp	r3, r2
 8001194:	d105      	bne.n	80011a2 <ADC_Clk_EnorDi+0x9a>
			ADC3_CLK_DI();
 8001196:	4b06      	ldr	r3, [pc, #24]	; (80011b0 <ADC_Clk_EnorDi+0xa8>)
 8001198:	6c5b      	ldr	r3, [r3, #68]	; 0x44
 800119a:	4a05      	ldr	r2, [pc, #20]	; (80011b0 <ADC_Clk_EnorDi+0xa8>)
 800119c:	f423 6380 	bic.w	r3, r3, #1024	; 0x400
 80011a0:	6453      	str	r3, [r2, #68]	; 0x44
}
 80011a2:	bf00      	nop
 80011a4:	370c      	adds	r7, #12
 80011a6:	46bd      	mov	sp, r7
 80011a8:	bc80      	pop	{r7}
 80011aa:	4770      	bx	lr
 80011ac:	40012000 	.word	0x40012000
 80011b0:	40023800 	.word	0x40023800
 80011b4:	40012100 	.word	0x40012100
 80011b8:	40012200 	.word	0x40012200

080011bc <ADC_Init_LR>:
	//Disable ADC
	pADCHandle->CR2 &= ~(1 << 0);
}

void ADC_Init_LR(ADC_RegDef_t *pADCHandle)
{
 80011bc:	b580      	push	{r7, lr}
 80011be:	b082      	sub	sp, #8
 80011c0:	af00      	add	r7, sp, #0
 80011c2:	6078      	str	r0, [r7, #4]
	//Enable ADC
	pADCHandle->CR2 |= (1 << 0);
 80011c4:	687b      	ldr	r3, [r7, #4]
 80011c6:	689b      	ldr	r3, [r3, #8]
 80011c8:	f043 0201 	orr.w	r2, r3, #1
 80011cc:	687b      	ldr	r3, [r7, #4]
 80011ce:	609a      	str	r2, [r3, #8]

	//continous conversion setting
	pADCHandle->CR2 |= (1 << 1);
 80011d0:	687b      	ldr	r3, [r7, #4]
 80011d2:	689b      	ldr	r3, [r3, #8]
 80011d4:	f043 0202 	orr.w	r2, r3, #2
 80011d8:	687b      	ldr	r3, [r7, #4]
 80011da:	609a      	str	r2, [r3, #8]

	//clearing channel
	pADCHandle->SQR3 &= ~(31 << 0);
 80011dc:	687b      	ldr	r3, [r7, #4]
 80011de:	6b5b      	ldr	r3, [r3, #52]	; 0x34
 80011e0:	f023 021f 	bic.w	r2, r3, #31
 80011e4:	687b      	ldr	r3, [r7, #4]
 80011e6:	635a      	str	r2, [r3, #52]	; 0x34

	//Selecting channel
	pADCHandle->SQR3 |= (1 << 0);
 80011e8:	687b      	ldr	r3, [r7, #4]
 80011ea:	6b5b      	ldr	r3, [r3, #52]	; 0x34
 80011ec:	f043 0201 	orr.w	r2, r3, #1
 80011f0:	687b      	ldr	r3, [r7, #4]
 80011f2:	635a      	str	r2, [r3, #52]	; 0x34

	//cycle edit
	pADCHandle->SMPR2 |= (0 << 4);
 80011f4:	687b      	ldr	r3, [r7, #4]
 80011f6:	691a      	ldr	r2, [r3, #16]
 80011f8:	687b      	ldr	r3, [r7, #4]
 80011fa:	611a      	str	r2, [r3, #16]

	//resolution
	pADCHandle->CR1 |= (1 << 24);
 80011fc:	687b      	ldr	r3, [r7, #4]
 80011fe:	685b      	ldr	r3, [r3, #4]
 8001200:	f043 7280 	orr.w	r2, r3, #16777216	; 0x1000000
 8001204:	687b      	ldr	r3, [r7, #4]
 8001206:	605a      	str	r2, [r3, #4]

	//start conversion of regular channels
	pADCHandle->CR2 |= (1 << 30);
 8001208:	687b      	ldr	r3, [r7, #4]
 800120a:	689b      	ldr	r3, [r3, #8]
 800120c:	f043 4280 	orr.w	r2, r3, #1073741824	; 0x40000000
 8001210:	687b      	ldr	r3, [r7, #4]
 8001212:	609a      	str	r2, [r3, #8]

	delay2();
 8001214:	f7ff ff4f 	bl	80010b6 <delay2>

	if(pADCHandle->DR > 900)
 8001218:	687b      	ldr	r3, [r7, #4]
 800121a:	6cdb      	ldr	r3, [r3, #76]	; 0x4c
 800121c:	f5b3 7f61 	cmp.w	r3, #900	; 0x384
 8001220:	d903      	bls.n	800122a <ADC_Init_LR+0x6e>
	{
		LR_Inc_Flg=1;
 8001222:	4b1a      	ldr	r3, [pc, #104]	; (800128c <ADC_Init_LR+0xd0>)
 8001224:	2201      	movs	r2, #1
 8001226:	701a      	strb	r2, [r3, #0]
 8001228:	e025      	b.n	8001276 <ADC_Init_LR+0xba>
	}
	else if(pADCHandle->DR < 110)
 800122a:	687b      	ldr	r3, [r7, #4]
 800122c:	6cdb      	ldr	r3, [r3, #76]	; 0x4c
 800122e:	2b6d      	cmp	r3, #109	; 0x6d
 8001230:	d803      	bhi.n	800123a <ADC_Init_LR+0x7e>
	{
		LR_Dec_Flg=1;
 8001232:	4b17      	ldr	r3, [pc, #92]	; (8001290 <ADC_Init_LR+0xd4>)
 8001234:	2201      	movs	r2, #1
 8001236:	701a      	strb	r2, [r3, #0]
 8001238:	e01d      	b.n	8001276 <ADC_Init_LR+0xba>
	}
	else if((pADCHandle->DR < 400) && (pADCHandle->DR >= 200))
 800123a:	687b      	ldr	r3, [r7, #4]
 800123c:	6cdb      	ldr	r3, [r3, #76]	; 0x4c
 800123e:	f5b3 7fc8 	cmp.w	r3, #400	; 0x190
 8001242:	d209      	bcs.n	8001258 <ADC_Init_LR+0x9c>
 8001244:	687b      	ldr	r3, [r7, #4]
 8001246:	6cdb      	ldr	r3, [r3, #76]	; 0x4c
 8001248:	2bc7      	cmp	r3, #199	; 0xc7
 800124a:	d905      	bls.n	8001258 <ADC_Init_LR+0x9c>
	{
		LR_Dec_Flg=1;
 800124c:	4b10      	ldr	r3, [pc, #64]	; (8001290 <ADC_Init_LR+0xd4>)
 800124e:	2201      	movs	r2, #1
 8001250:	701a      	strb	r2, [r3, #0]
		delay1();
 8001252:	f7ff ff44 	bl	80010de <delay1>
 8001256:	e00e      	b.n	8001276 <ADC_Init_LR+0xba>
	}
	else if((pADCHandle->DR > 700) && (pADCHandle->DR <= 900))
 8001258:	687b      	ldr	r3, [r7, #4]
 800125a:	6cdb      	ldr	r3, [r3, #76]	; 0x4c
 800125c:	f5b3 7f2f 	cmp.w	r3, #700	; 0x2bc
 8001260:	d909      	bls.n	8001276 <ADC_Init_LR+0xba>
 8001262:	687b      	ldr	r3, [r7, #4]
 8001264:	6cdb      	ldr	r3, [r3, #76]	; 0x4c
 8001266:	f5b3 7f61 	cmp.w	r3, #900	; 0x384
 800126a:	d804      	bhi.n	8001276 <ADC_Init_LR+0xba>
	{
		LR_Inc_Flg=1;
 800126c:	4b07      	ldr	r3, [pc, #28]	; (800128c <ADC_Init_LR+0xd0>)
 800126e:	2201      	movs	r2, #1
 8001270:	701a      	strb	r2, [r3, #0]
		delay1();
 8001272:	f7ff ff34 	bl	80010de <delay1>
	}
	//Disable ADC
	pADCHandle->CR2 &= ~(1 << 0);
 8001276:	687b      	ldr	r3, [r7, #4]
 8001278:	689b      	ldr	r3, [r3, #8]
 800127a:	f023 0201 	bic.w	r2, r3, #1
 800127e:	687b      	ldr	r3, [r7, #4]
 8001280:	609a      	str	r2, [r3, #8]
}
 8001282:	bf00      	nop
 8001284:	3708      	adds	r7, #8
 8001286:	46bd      	mov	sp, r7
 8001288:	bd80      	pop	{r7, pc}
 800128a:	bf00      	nop
 800128c:	20000032 	.word	0x20000032
 8001290:	20000030 	.word	0x20000030

08001294 <ADC_Init_UD>:

void ADC_Init_UD(ADC_RegDef_t *pADCHandle)
{
 8001294:	b580      	push	{r7, lr}
 8001296:	b082      	sub	sp, #8
 8001298:	af00      	add	r7, sp, #0
 800129a:	6078      	str	r0, [r7, #4]
	//Enable ADC
	pADCHandle->CR2 |= (1 << 0);
 800129c:	687b      	ldr	r3, [r7, #4]
 800129e:	689b      	ldr	r3, [r3, #8]
 80012a0:	f043 0201 	orr.w	r2, r3, #1
 80012a4:	687b      	ldr	r3, [r7, #4]
 80012a6:	609a      	str	r2, [r3, #8]

	//continous conversion setting
	pADCHandle->CR2 |= (1 << 1);
 80012a8:	687b      	ldr	r3, [r7, #4]
 80012aa:	689b      	ldr	r3, [r3, #8]
 80012ac:	f043 0202 	orr.w	r2, r3, #2
 80012b0:	687b      	ldr	r3, [r7, #4]
 80012b2:	609a      	str	r2, [r3, #8]

	//clearing channel
	pADCHandle->SQR3 &= ~(31 << 0);
 80012b4:	687b      	ldr	r3, [r7, #4]
 80012b6:	6b5b      	ldr	r3, [r3, #52]	; 0x34
 80012b8:	f023 021f 	bic.w	r2, r3, #31
 80012bc:	687b      	ldr	r3, [r7, #4]
 80012be:	635a      	str	r2, [r3, #52]	; 0x34

	//Selecting channel
	pADCHandle->SQR3 |= (3 << 0);
 80012c0:	687b      	ldr	r3, [r7, #4]
 80012c2:	6b5b      	ldr	r3, [r3, #52]	; 0x34
 80012c4:	f043 0203 	orr.w	r2, r3, #3
 80012c8:	687b      	ldr	r3, [r7, #4]
 80012ca:	635a      	str	r2, [r3, #52]	; 0x34

	//cycle edit
	pADCHandle->SMPR2 |= (0 << 4);
 80012cc:	687b      	ldr	r3, [r7, #4]
 80012ce:	691a      	ldr	r2, [r3, #16]
 80012d0:	687b      	ldr	r3, [r7, #4]
 80012d2:	611a      	str	r2, [r3, #16]

	//resolution
	pADCHandle->CR1 |= (1 << 24);
 80012d4:	687b      	ldr	r3, [r7, #4]
 80012d6:	685b      	ldr	r3, [r3, #4]
 80012d8:	f043 7280 	orr.w	r2, r3, #16777216	; 0x1000000
 80012dc:	687b      	ldr	r3, [r7, #4]
 80012de:	605a      	str	r2, [r3, #4]

	//start conversion of regular channels
	pADCHandle->CR2 |= (1 << 30);
 80012e0:	687b      	ldr	r3, [r7, #4]
 80012e2:	689b      	ldr	r3, [r3, #8]
 80012e4:	f043 4280 	orr.w	r2, r3, #1073741824	; 0x40000000
 80012e8:	687b      	ldr	r3, [r7, #4]
 80012ea:	609a      	str	r2, [r3, #8]

	delay2();
 80012ec:	f7ff fee3 	bl	80010b6 <delay2>

	if(pADCHandle->DR > 900)
 80012f0:	687b      	ldr	r3, [r7, #4]
 80012f2:	6cdb      	ldr	r3, [r3, #76]	; 0x4c
 80012f4:	f5b3 7f61 	cmp.w	r3, #900	; 0x384
 80012f8:	d903      	bls.n	8001302 <ADC_Init_UD+0x6e>
	{
		UD_Inc_Flg=1;
 80012fa:	4b1a      	ldr	r3, [pc, #104]	; (8001364 <ADC_Init_UD+0xd0>)
 80012fc:	2201      	movs	r2, #1
 80012fe:	701a      	strb	r2, [r3, #0]
 8001300:	e025      	b.n	800134e <ADC_Init_UD+0xba>
	}
	else if(pADCHandle->DR < 110)
 8001302:	687b      	ldr	r3, [r7, #4]
 8001304:	6cdb      	ldr	r3, [r3, #76]	; 0x4c
 8001306:	2b6d      	cmp	r3, #109	; 0x6d
 8001308:	d803      	bhi.n	8001312 <ADC_Init_UD+0x7e>
	{
		UD_Dec_Flg=1;
 800130a:	4b17      	ldr	r3, [pc, #92]	; (8001368 <ADC_Init_UD+0xd4>)
 800130c:	2201      	movs	r2, #1
 800130e:	701a      	strb	r2, [r3, #0]
 8001310:	e01d      	b.n	800134e <ADC_Init_UD+0xba>
	}
	else if((pADCHandle->DR < 400) && (pADCHandle->DR >= 200))
 8001312:	687b      	ldr	r3, [r7, #4]
 8001314:	6cdb      	ldr	r3, [r3, #76]	; 0x4c
 8001316:	f5b3 7fc8 	cmp.w	r3, #400	; 0x190
 800131a:	d209      	bcs.n	8001330 <ADC_Init_UD+0x9c>
 800131c:	687b      	ldr	r3, [r7, #4]
 800131e:	6cdb      	ldr	r3, [r3, #76]	; 0x4c
 8001320:	2bc7      	cmp	r3, #199	; 0xc7
 8001322:	d905      	bls.n	8001330 <ADC_Init_UD+0x9c>
	{
		UD_Dec_Flg=1;
 8001324:	4b10      	ldr	r3, [pc, #64]	; (8001368 <ADC_Init_UD+0xd4>)
 8001326:	2201      	movs	r2, #1
 8001328:	701a      	strb	r2, [r3, #0]
		delay1();
 800132a:	f7ff fed8 	bl	80010de <delay1>
 800132e:	e00e      	b.n	800134e <ADC_Init_UD+0xba>
	}
	else if((pADCHandle->DR > 700) && (pADCHandle->DR <= 900))
 8001330:	687b      	ldr	r3, [r7, #4]
 8001332:	6cdb      	ldr	r3, [r3, #76]	; 0x4c
 8001334:	f5b3 7f2f 	cmp.w	r3, #700	; 0x2bc
 8001338:	d909      	bls.n	800134e <ADC_Init_UD+0xba>
 800133a:	687b      	ldr	r3, [r7, #4]
 800133c:	6cdb      	ldr	r3, [r3, #76]	; 0x4c
 800133e:	f5b3 7f61 	cmp.w	r3, #900	; 0x384
 8001342:	d804      	bhi.n	800134e <ADC_Init_UD+0xba>
	{
		UD_Inc_Flg=1;
 8001344:	4b07      	ldr	r3, [pc, #28]	; (8001364 <ADC_Init_UD+0xd0>)
 8001346:	2201      	movs	r2, #1
 8001348:	701a      	strb	r2, [r3, #0]
		delay1();
 800134a:	f7ff fec8 	bl	80010de <delay1>
	}
	//Disable ADC
	pADCHandle->CR2 &= ~(1 << 0);
 800134e:	687b      	ldr	r3, [r7, #4]
 8001350:	689b      	ldr	r3, [r3, #8]
 8001352:	f023 0201 	bic.w	r2, r3, #1
 8001356:	687b      	ldr	r3, [r7, #4]
 8001358:	609a      	str	r2, [r3, #8]
}
 800135a:	bf00      	nop
 800135c:	3708      	adds	r7, #8
 800135e:	46bd      	mov	sp, r7
 8001360:	bd80      	pop	{r7, pc}
 8001362:	bf00      	nop
 8001364:	2000002c 	.word	0x2000002c
 8001368:	20000033 	.word	0x20000033

0800136c <ADC_Wrist>:

void ADC_Wrist(ADC_RegDef_t *pADCHandle)
{
 800136c:	b580      	push	{r7, lr}
 800136e:	b082      	sub	sp, #8
 8001370:	af00      	add	r7, sp, #0
 8001372:	6078      	str	r0, [r7, #4]
	//Enable ADC
	pADCHandle->CR2 |= (1 << 0);
 8001374:	687b      	ldr	r3, [r7, #4]
 8001376:	689b      	ldr	r3, [r3, #8]
 8001378:	f043 0201 	orr.w	r2, r3, #1
 800137c:	687b      	ldr	r3, [r7, #4]
 800137e:	609a      	str	r2, [r3, #8]

	//continous conversion setting
	pADCHandle->CR2 |= (1 << 1);
 8001380:	687b      	ldr	r3, [r7, #4]
 8001382:	689b      	ldr	r3, [r3, #8]
 8001384:	f043 0202 	orr.w	r2, r3, #2
 8001388:	687b      	ldr	r3, [r7, #4]
 800138a:	609a      	str	r2, [r3, #8]

	//clearing channel
	pADCHandle->SQR3 &= ~(31 << 0);
 800138c:	687b      	ldr	r3, [r7, #4]
 800138e:	6b5b      	ldr	r3, [r3, #52]	; 0x34
 8001390:	f023 021f 	bic.w	r2, r3, #31
 8001394:	687b      	ldr	r3, [r7, #4]
 8001396:	635a      	str	r2, [r3, #52]	; 0x34

	//Selecting channel
	pADCHandle->SQR3 |= (5 << 0);
 8001398:	687b      	ldr	r3, [r7, #4]
 800139a:	6b5b      	ldr	r3, [r3, #52]	; 0x34
 800139c:	f043 0205 	orr.w	r2, r3, #5
 80013a0:	687b      	ldr	r3, [r7, #4]
 80013a2:	635a      	str	r2, [r3, #52]	; 0x34

	//cycle edit
	pADCHandle->SMPR2 |= (0 << 4);
 80013a4:	687b      	ldr	r3, [r7, #4]
 80013a6:	691a      	ldr	r2, [r3, #16]
 80013a8:	687b      	ldr	r3, [r7, #4]
 80013aa:	611a      	str	r2, [r3, #16]

	//resolution
	pADCHandle->CR1 |= (1 << 24);
 80013ac:	687b      	ldr	r3, [r7, #4]
 80013ae:	685b      	ldr	r3, [r3, #4]
 80013b0:	f043 7280 	orr.w	r2, r3, #16777216	; 0x1000000
 80013b4:	687b      	ldr	r3, [r7, #4]
 80013b6:	605a      	str	r2, [r3, #4]

	//start conversion of regular channels
	pADCHandle->CR2 |= (1 << 30);
 80013b8:	687b      	ldr	r3, [r7, #4]
 80013ba:	689b      	ldr	r3, [r3, #8]
 80013bc:	f043 4280 	orr.w	r2, r3, #1073741824	; 0x40000000
 80013c0:	687b      	ldr	r3, [r7, #4]
 80013c2:	609a      	str	r2, [r3, #8]

	delay2();
 80013c4:	f7ff fe77 	bl	80010b6 <delay2>

	if((pADCHandle->DR > 700) && (pADCHandle->DR <= 900))
 80013c8:	687b      	ldr	r3, [r7, #4]
 80013ca:	6cdb      	ldr	r3, [r3, #76]	; 0x4c
 80013cc:	f5b3 7f2f 	cmp.w	r3, #700	; 0x2bc
 80013d0:	d90a      	bls.n	80013e8 <ADC_Wrist+0x7c>
 80013d2:	687b      	ldr	r3, [r7, #4]
 80013d4:	6cdb      	ldr	r3, [r3, #76]	; 0x4c
 80013d6:	f5b3 7f61 	cmp.w	r3, #900	; 0x384
 80013da:	d805      	bhi.n	80013e8 <ADC_Wrist+0x7c>
	{
		Wrist_Inc_Flg=1;
 80013dc:	4b17      	ldr	r3, [pc, #92]	; (800143c <ADC_Wrist+0xd0>)
 80013de:	2201      	movs	r2, #1
 80013e0:	701a      	strb	r2, [r3, #0]
		delay1();
 80013e2:	f7ff fe7c 	bl	80010de <delay1>
 80013e6:	e01e      	b.n	8001426 <ADC_Wrist+0xba>
	}
	else if((pADCHandle->DR < 400) && (pADCHandle->DR >= 200))
 80013e8:	687b      	ldr	r3, [r7, #4]
 80013ea:	6cdb      	ldr	r3, [r3, #76]	; 0x4c
 80013ec:	f5b3 7fc8 	cmp.w	r3, #400	; 0x190
 80013f0:	d209      	bcs.n	8001406 <ADC_Wrist+0x9a>
 80013f2:	687b      	ldr	r3, [r7, #4]
 80013f4:	6cdb      	ldr	r3, [r3, #76]	; 0x4c
 80013f6:	2bc7      	cmp	r3, #199	; 0xc7
 80013f8:	d905      	bls.n	8001406 <ADC_Wrist+0x9a>
	{
		Wrist_Dec_Flg=1;
 80013fa:	4b11      	ldr	r3, [pc, #68]	; (8001440 <ADC_Wrist+0xd4>)
 80013fc:	2201      	movs	r2, #1
 80013fe:	701a      	strb	r2, [r3, #0]
		delay1();
 8001400:	f7ff fe6d 	bl	80010de <delay1>
 8001404:	e00f      	b.n	8001426 <ADC_Wrist+0xba>
	}
	else if(pADCHandle->DR < 110)
 8001406:	687b      	ldr	r3, [r7, #4]
 8001408:	6cdb      	ldr	r3, [r3, #76]	; 0x4c
 800140a:	2b6d      	cmp	r3, #109	; 0x6d
 800140c:	d803      	bhi.n	8001416 <ADC_Wrist+0xaa>
	{
		Wrist_Dec_Flg=1;
 800140e:	4b0c      	ldr	r3, [pc, #48]	; (8001440 <ADC_Wrist+0xd4>)
 8001410:	2201      	movs	r2, #1
 8001412:	701a      	strb	r2, [r3, #0]
 8001414:	e007      	b.n	8001426 <ADC_Wrist+0xba>
	}
	else if(pADCHandle->DR > 900)
 8001416:	687b      	ldr	r3, [r7, #4]
 8001418:	6cdb      	ldr	r3, [r3, #76]	; 0x4c
 800141a:	f5b3 7f61 	cmp.w	r3, #900	; 0x384
 800141e:	d902      	bls.n	8001426 <ADC_Wrist+0xba>
	{
		Wrist_Inc_Flg=1;
 8001420:	4b06      	ldr	r3, [pc, #24]	; (800143c <ADC_Wrist+0xd0>)
 8001422:	2201      	movs	r2, #1
 8001424:	701a      	strb	r2, [r3, #0]
	}
	//Disable ADC
	pADCHandle->CR2 &= ~(1 << 0);
 8001426:	687b      	ldr	r3, [r7, #4]
 8001428:	689b      	ldr	r3, [r3, #8]
 800142a:	f023 0201 	bic.w	r2, r3, #1
 800142e:	687b      	ldr	r3, [r7, #4]
 8001430:	609a      	str	r2, [r3, #8]
}
 8001432:	bf00      	nop
 8001434:	3708      	adds	r7, #8
 8001436:	46bd      	mov	sp, r7
 8001438:	bd80      	pop	{r7, pc}
 800143a:	bf00      	nop
 800143c:	2000002e 	.word	0x2000002e
 8001440:	20000031 	.word	0x20000031

08001444 <ADC_Hand>:

void ADC_Hand(ADC_RegDef_t *pADCHandle)
{
 8001444:	b580      	push	{r7, lr}
 8001446:	b082      	sub	sp, #8
 8001448:	af00      	add	r7, sp, #0
 800144a:	6078      	str	r0, [r7, #4]
	//Enable ADC
	pADCHandle->CR2 |= (1 << 0);
 800144c:	687b      	ldr	r3, [r7, #4]
 800144e:	689b      	ldr	r3, [r3, #8]
 8001450:	f043 0201 	orr.w	r2, r3, #1
 8001454:	687b      	ldr	r3, [r7, #4]
 8001456:	609a      	str	r2, [r3, #8]

	//continous conversion setting
	pADCHandle->CR2 |= (1 << 1);
 8001458:	687b      	ldr	r3, [r7, #4]
 800145a:	689b      	ldr	r3, [r3, #8]
 800145c:	f043 0202 	orr.w	r2, r3, #2
 8001460:	687b      	ldr	r3, [r7, #4]
 8001462:	609a      	str	r2, [r3, #8]

	//clearing channel
	pADCHandle->SQR3 &= ~(31 << 0);
 8001464:	687b      	ldr	r3, [r7, #4]
 8001466:	6b5b      	ldr	r3, [r3, #52]	; 0x34
 8001468:	f023 021f 	bic.w	r2, r3, #31
 800146c:	687b      	ldr	r3, [r7, #4]
 800146e:	635a      	str	r2, [r3, #52]	; 0x34

	//Selecting channel
	pADCHandle->SQR3 |= (7 << 0);
 8001470:	687b      	ldr	r3, [r7, #4]
 8001472:	6b5b      	ldr	r3, [r3, #52]	; 0x34
 8001474:	f043 0207 	orr.w	r2, r3, #7
 8001478:	687b      	ldr	r3, [r7, #4]
 800147a:	635a      	str	r2, [r3, #52]	; 0x34

	//cycle edit
	pADCHandle->SMPR2 |= (0 << 4);
 800147c:	687b      	ldr	r3, [r7, #4]
 800147e:	691a      	ldr	r2, [r3, #16]
 8001480:	687b      	ldr	r3, [r7, #4]
 8001482:	611a      	str	r2, [r3, #16]

	//resolution
	pADCHandle->CR1 |= (1 << 24);
 8001484:	687b      	ldr	r3, [r7, #4]
 8001486:	685b      	ldr	r3, [r3, #4]
 8001488:	f043 7280 	orr.w	r2, r3, #16777216	; 0x1000000
 800148c:	687b      	ldr	r3, [r7, #4]
 800148e:	605a      	str	r2, [r3, #4]

	//start conversion of regular channels
	pADCHandle->CR2 |= (1 << 30);
 8001490:	687b      	ldr	r3, [r7, #4]
 8001492:	689b      	ldr	r3, [r3, #8]
 8001494:	f043 4280 	orr.w	r2, r3, #1073741824	; 0x40000000
 8001498:	687b      	ldr	r3, [r7, #4]
 800149a:	609a      	str	r2, [r3, #8]

	delay2();
 800149c:	f7ff fe0b 	bl	80010b6 <delay2>

	if((pADCHandle->DR > 700) && (pADCHandle->DR <= 900))
 80014a0:	687b      	ldr	r3, [r7, #4]
 80014a2:	6cdb      	ldr	r3, [r3, #76]	; 0x4c
 80014a4:	f5b3 7f2f 	cmp.w	r3, #700	; 0x2bc
 80014a8:	d90a      	bls.n	80014c0 <ADC_Hand+0x7c>
 80014aa:	687b      	ldr	r3, [r7, #4]
 80014ac:	6cdb      	ldr	r3, [r3, #76]	; 0x4c
 80014ae:	f5b3 7f61 	cmp.w	r3, #900	; 0x384
 80014b2:	d805      	bhi.n	80014c0 <ADC_Hand+0x7c>
	{
		Hand_Inc_Flg=1;
 80014b4:	4b17      	ldr	r3, [pc, #92]	; (8001514 <ADC_Hand+0xd0>)
 80014b6:	2201      	movs	r2, #1
 80014b8:	701a      	strb	r2, [r3, #0]
		delay1();
 80014ba:	f7ff fe10 	bl	80010de <delay1>
 80014be:	e01e      	b.n	80014fe <ADC_Hand+0xba>
	}
	else if((pADCHandle->DR < 400) && (pADCHandle->DR >= 200))
 80014c0:	687b      	ldr	r3, [r7, #4]
 80014c2:	6cdb      	ldr	r3, [r3, #76]	; 0x4c
 80014c4:	f5b3 7fc8 	cmp.w	r3, #400	; 0x190
 80014c8:	d209      	bcs.n	80014de <ADC_Hand+0x9a>
 80014ca:	687b      	ldr	r3, [r7, #4]
 80014cc:	6cdb      	ldr	r3, [r3, #76]	; 0x4c
 80014ce:	2bc7      	cmp	r3, #199	; 0xc7
 80014d0:	d905      	bls.n	80014de <ADC_Hand+0x9a>
	{
		Hand_Dec_Flg=1;
 80014d2:	4b11      	ldr	r3, [pc, #68]	; (8001518 <ADC_Hand+0xd4>)
 80014d4:	2201      	movs	r2, #1
 80014d6:	701a      	strb	r2, [r3, #0]
		delay1();
 80014d8:	f7ff fe01 	bl	80010de <delay1>
 80014dc:	e00f      	b.n	80014fe <ADC_Hand+0xba>
	}
	else if(pADCHandle->DR < 110)
 80014de:	687b      	ldr	r3, [r7, #4]
 80014e0:	6cdb      	ldr	r3, [r3, #76]	; 0x4c
 80014e2:	2b6d      	cmp	r3, #109	; 0x6d
 80014e4:	d803      	bhi.n	80014ee <ADC_Hand+0xaa>
	{
		Hand_Dec_Flg=1;
 80014e6:	4b0c      	ldr	r3, [pc, #48]	; (8001518 <ADC_Hand+0xd4>)
 80014e8:	2201      	movs	r2, #1
 80014ea:	701a      	strb	r2, [r3, #0]
 80014ec:	e007      	b.n	80014fe <ADC_Hand+0xba>
	}
	else if(pADCHandle->DR > 900)
 80014ee:	687b      	ldr	r3, [r7, #4]
 80014f0:	6cdb      	ldr	r3, [r3, #76]	; 0x4c
 80014f2:	f5b3 7f61 	cmp.w	r3, #900	; 0x384
 80014f6:	d902      	bls.n	80014fe <ADC_Hand+0xba>
	{
		Hand_Inc_Flg=1;
 80014f8:	4b06      	ldr	r3, [pc, #24]	; (8001514 <ADC_Hand+0xd0>)
 80014fa:	2201      	movs	r2, #1
 80014fc:	701a      	strb	r2, [r3, #0]
	}
	//Disable ADC
	pADCHandle->CR2 &= ~(1 << 0);
 80014fe:	687b      	ldr	r3, [r7, #4]
 8001500:	689b      	ldr	r3, [r3, #8]
 8001502:	f023 0201 	bic.w	r2, r3, #1
 8001506:	687b      	ldr	r3, [r7, #4]
 8001508:	609a      	str	r2, [r3, #8]
}
 800150a:	bf00      	nop
 800150c:	3708      	adds	r7, #8
 800150e:	46bd      	mov	sp, r7
 8001510:	bd80      	pop	{r7, pc}
 8001512:	bf00      	nop
 8001514:	2000002d 	.word	0x2000002d
 8001518:	2000002f 	.word	0x2000002f

0800151c <EdgeCondition>:

uint32_t EdgeCondition(uint32_t val, uint8_t Hand_or_No)
{
 800151c:	b480      	push	{r7}
 800151e:	b083      	sub	sp, #12
 8001520:	af00      	add	r7, sp, #0
 8001522:	6078      	str	r0, [r7, #4]
 8001524:	460b      	mov	r3, r1
 8001526:	70fb      	strb	r3, [r7, #3]
	if(Hand_or_No == NOTHAND)
 8001528:	78fb      	ldrb	r3, [r7, #3]
 800152a:	2b01      	cmp	r3, #1
 800152c:	d10b      	bne.n	8001546 <EdgeCondition+0x2a>
	{
		if(val >= 180){val=180;}
 800152e:	687b      	ldr	r3, [r7, #4]
 8001530:	2bb3      	cmp	r3, #179	; 0xb3
 8001532:	d902      	bls.n	800153a <EdgeCondition+0x1e>
 8001534:	23b4      	movs	r3, #180	; 0xb4
 8001536:	607b      	str	r3, [r7, #4]
 8001538:	e013      	b.n	8001562 <EdgeCondition+0x46>
		else if(val <= 10){val=10;}
 800153a:	687b      	ldr	r3, [r7, #4]
 800153c:	2b0a      	cmp	r3, #10
 800153e:	d810      	bhi.n	8001562 <EdgeCondition+0x46>
 8001540:	230a      	movs	r3, #10
 8001542:	607b      	str	r3, [r7, #4]
 8001544:	e00d      	b.n	8001562 <EdgeCondition+0x46>
	}
	else if(Hand_or_No == HAND)
 8001546:	78fb      	ldrb	r3, [r7, #3]
 8001548:	2b02      	cmp	r3, #2
 800154a:	d10a      	bne.n	8001562 <EdgeCondition+0x46>
	{
		if(val >= 180){val=180;}
 800154c:	687b      	ldr	r3, [r7, #4]
 800154e:	2bb3      	cmp	r3, #179	; 0xb3
 8001550:	d902      	bls.n	8001558 <EdgeCondition+0x3c>
 8001552:	23b4      	movs	r3, #180	; 0xb4
 8001554:	607b      	str	r3, [r7, #4]
 8001556:	e004      	b.n	8001562 <EdgeCondition+0x46>
		else if(val <= 10){val=10;}
 8001558:	687b      	ldr	r3, [r7, #4]
 800155a:	2b0a      	cmp	r3, #10
 800155c:	d801      	bhi.n	8001562 <EdgeCondition+0x46>
 800155e:	230a      	movs	r3, #10
 8001560:	607b      	str	r3, [r7, #4]
	}
	return val;
 8001562:	687b      	ldr	r3, [r7, #4]
}
 8001564:	4618      	mov	r0, r3
 8001566:	370c      	adds	r7, #12
 8001568:	46bd      	mov	sp, r7
 800156a:	bc80      	pop	{r7}
 800156c:	4770      	bx	lr
	...

08001570 <TIM2_5_CLKEnable>:
		}
	}
}

void TIM2_5_CLKEnable(TIM2_5_RegDef_t *pTIMx, uint8_t EnorDi)
{
 8001570:	b480      	push	{r7}
 8001572:	b083      	sub	sp, #12
 8001574:	af00      	add	r7, sp, #0
 8001576:	6078      	str	r0, [r7, #4]
 8001578:	460b      	mov	r3, r1
 800157a:	70fb      	strb	r3, [r7, #3]
	RCC->AHB1ENR |= (1 << 0); // setting HSI on
 800157c:	4b32      	ldr	r3, [pc, #200]	; (8001648 <TIM2_5_CLKEnable+0xd8>)
 800157e:	6b1b      	ldr	r3, [r3, #48]	; 0x30
 8001580:	4a31      	ldr	r2, [pc, #196]	; (8001648 <TIM2_5_CLKEnable+0xd8>)
 8001582:	f043 0301 	orr.w	r3, r3, #1
 8001586:	6313      	str	r3, [r2, #48]	; 0x30
	if(EnorDi == ENABLE)
 8001588:	78fb      	ldrb	r3, [r7, #3]
 800158a:	2b01      	cmp	r3, #1
 800158c:	d12b      	bne.n	80015e6 <TIM2_5_CLKEnable+0x76>
	{
		if(pTIMx == TIM3)
 800158e:	687b      	ldr	r3, [r7, #4]
 8001590:	4a2e      	ldr	r2, [pc, #184]	; (800164c <TIM2_5_CLKEnable+0xdc>)
 8001592:	4293      	cmp	r3, r2
 8001594:	d106      	bne.n	80015a4 <TIM2_5_CLKEnable+0x34>
		{
			TIM3_CLK_EN(); //Enabling the TIM3 peripheral clock
 8001596:	4b2c      	ldr	r3, [pc, #176]	; (8001648 <TIM2_5_CLKEnable+0xd8>)
 8001598:	6c1b      	ldr	r3, [r3, #64]	; 0x40
 800159a:	4a2b      	ldr	r2, [pc, #172]	; (8001648 <TIM2_5_CLKEnable+0xd8>)
 800159c:	f043 0302 	orr.w	r3, r3, #2
 80015a0:	6413      	str	r3, [r2, #64]	; 0x40
		{
			TIM5_CLK_DI();
		}
	}

}
 80015a2:	e04b      	b.n	800163c <TIM2_5_CLKEnable+0xcc>
		else if(pTIMx == TIM4)
 80015a4:	687b      	ldr	r3, [r7, #4]
 80015a6:	4a2a      	ldr	r2, [pc, #168]	; (8001650 <TIM2_5_CLKEnable+0xe0>)
 80015a8:	4293      	cmp	r3, r2
 80015aa:	d106      	bne.n	80015ba <TIM2_5_CLKEnable+0x4a>
			TIM4_CLK_EN();
 80015ac:	4b26      	ldr	r3, [pc, #152]	; (8001648 <TIM2_5_CLKEnable+0xd8>)
 80015ae:	6c1b      	ldr	r3, [r3, #64]	; 0x40
 80015b0:	4a25      	ldr	r2, [pc, #148]	; (8001648 <TIM2_5_CLKEnable+0xd8>)
 80015b2:	f043 0304 	orr.w	r3, r3, #4
 80015b6:	6413      	str	r3, [r2, #64]	; 0x40
}
 80015b8:	e040      	b.n	800163c <TIM2_5_CLKEnable+0xcc>
		else if(pTIMx == TIM2)
 80015ba:	687b      	ldr	r3, [r7, #4]
 80015bc:	f1b3 4f80 	cmp.w	r3, #1073741824	; 0x40000000
 80015c0:	d106      	bne.n	80015d0 <TIM2_5_CLKEnable+0x60>
			TIM2_CLK_EN();
 80015c2:	4b21      	ldr	r3, [pc, #132]	; (8001648 <TIM2_5_CLKEnable+0xd8>)
 80015c4:	6c1b      	ldr	r3, [r3, #64]	; 0x40
 80015c6:	4a20      	ldr	r2, [pc, #128]	; (8001648 <TIM2_5_CLKEnable+0xd8>)
 80015c8:	f043 0301 	orr.w	r3, r3, #1
 80015cc:	6413      	str	r3, [r2, #64]	; 0x40
}
 80015ce:	e035      	b.n	800163c <TIM2_5_CLKEnable+0xcc>
		else if(pTIMx == TIM5)
 80015d0:	687b      	ldr	r3, [r7, #4]
 80015d2:	4a20      	ldr	r2, [pc, #128]	; (8001654 <TIM2_5_CLKEnable+0xe4>)
 80015d4:	4293      	cmp	r3, r2
 80015d6:	d131      	bne.n	800163c <TIM2_5_CLKEnable+0xcc>
			TIM5_CLK_EN();
 80015d8:	4b1b      	ldr	r3, [pc, #108]	; (8001648 <TIM2_5_CLKEnable+0xd8>)
 80015da:	6c1b      	ldr	r3, [r3, #64]	; 0x40
 80015dc:	4a1a      	ldr	r2, [pc, #104]	; (8001648 <TIM2_5_CLKEnable+0xd8>)
 80015de:	f043 0308 	orr.w	r3, r3, #8
 80015e2:	6413      	str	r3, [r2, #64]	; 0x40
}
 80015e4:	e02a      	b.n	800163c <TIM2_5_CLKEnable+0xcc>
		if(pTIMx == TIM3)
 80015e6:	687b      	ldr	r3, [r7, #4]
 80015e8:	4a18      	ldr	r2, [pc, #96]	; (800164c <TIM2_5_CLKEnable+0xdc>)
 80015ea:	4293      	cmp	r3, r2
 80015ec:	d106      	bne.n	80015fc <TIM2_5_CLKEnable+0x8c>
			TIM3_CLK_DI(); //Disabling the TIM3 peripheral clock
 80015ee:	4b16      	ldr	r3, [pc, #88]	; (8001648 <TIM2_5_CLKEnable+0xd8>)
 80015f0:	6c1b      	ldr	r3, [r3, #64]	; 0x40
 80015f2:	4a15      	ldr	r2, [pc, #84]	; (8001648 <TIM2_5_CLKEnable+0xd8>)
 80015f4:	f023 0302 	bic.w	r3, r3, #2
 80015f8:	6413      	str	r3, [r2, #64]	; 0x40
}
 80015fa:	e01f      	b.n	800163c <TIM2_5_CLKEnable+0xcc>
		else if(pTIMx == TIM4)
 80015fc:	687b      	ldr	r3, [r7, #4]
 80015fe:	4a14      	ldr	r2, [pc, #80]	; (8001650 <TIM2_5_CLKEnable+0xe0>)
 8001600:	4293      	cmp	r3, r2
 8001602:	d106      	bne.n	8001612 <TIM2_5_CLKEnable+0xa2>
			TIM4_CLK_DI();
 8001604:	4b10      	ldr	r3, [pc, #64]	; (8001648 <TIM2_5_CLKEnable+0xd8>)
 8001606:	6c1b      	ldr	r3, [r3, #64]	; 0x40
 8001608:	4a0f      	ldr	r2, [pc, #60]	; (8001648 <TIM2_5_CLKEnable+0xd8>)
 800160a:	f023 0304 	bic.w	r3, r3, #4
 800160e:	6413      	str	r3, [r2, #64]	; 0x40
}
 8001610:	e014      	b.n	800163c <TIM2_5_CLKEnable+0xcc>
		else if(pTIMx == TIM2)
 8001612:	687b      	ldr	r3, [r7, #4]
 8001614:	f1b3 4f80 	cmp.w	r3, #1073741824	; 0x40000000
 8001618:	d106      	bne.n	8001628 <TIM2_5_CLKEnable+0xb8>
			TIM2_CLK_DI();
 800161a:	4b0b      	ldr	r3, [pc, #44]	; (8001648 <TIM2_5_CLKEnable+0xd8>)
 800161c:	6c1b      	ldr	r3, [r3, #64]	; 0x40
 800161e:	4a0a      	ldr	r2, [pc, #40]	; (8001648 <TIM2_5_CLKEnable+0xd8>)
 8001620:	f023 0301 	bic.w	r3, r3, #1
 8001624:	6413      	str	r3, [r2, #64]	; 0x40
}
 8001626:	e009      	b.n	800163c <TIM2_5_CLKEnable+0xcc>
		else if(pTIMx == TIM5)
 8001628:	687b      	ldr	r3, [r7, #4]
 800162a:	4a0a      	ldr	r2, [pc, #40]	; (8001654 <TIM2_5_CLKEnable+0xe4>)
 800162c:	4293      	cmp	r3, r2
 800162e:	d105      	bne.n	800163c <TIM2_5_CLKEnable+0xcc>
			TIM5_CLK_DI();
 8001630:	4b05      	ldr	r3, [pc, #20]	; (8001648 <TIM2_5_CLKEnable+0xd8>)
 8001632:	6c1b      	ldr	r3, [r3, #64]	; 0x40
 8001634:	4a04      	ldr	r2, [pc, #16]	; (8001648 <TIM2_5_CLKEnable+0xd8>)
 8001636:	f023 0308 	bic.w	r3, r3, #8
 800163a:	6413      	str	r3, [r2, #64]	; 0x40
}
 800163c:	bf00      	nop
 800163e:	370c      	adds	r7, #12
 8001640:	46bd      	mov	sp, r7
 8001642:	bc80      	pop	{r7}
 8001644:	4770      	bx	lr
 8001646:	bf00      	nop
 8001648:	40023800 	.word	0x40023800
 800164c:	40000400 	.word	0x40000400
 8001650:	40000800 	.word	0x40000800
 8001654:	40000c00 	.word	0x40000c00

08001658 <PWM2_5_Init>:

void PWM2_5_Init(TIM_Handler_t *pTIMHandle)
{
 8001658:	b480      	push	{r7}
 800165a:	b083      	sub	sp, #12
 800165c:	af00      	add	r7, sp, #0
 800165e:	6078      	str	r0, [r7, #4]
	//CR1 peripheral setting

	pTIMHandle->pTIMx->CR1 |= (0 << 3); //clears the one pulse mode bit
 8001660:	687b      	ldr	r3, [r7, #4]
 8001662:	681a      	ldr	r2, [r3, #0]
 8001664:	687b      	ldr	r3, [r7, #4]
 8001666:	681b      	ldr	r3, [r3, #0]
 8001668:	6812      	ldr	r2, [r2, #0]
 800166a:	601a      	str	r2, [r3, #0]
	pTIMHandle->pTIMx->CR1 |= (pTIMHandle->TIM_Config.TIM_Mode << 5); //Sets timer mode
 800166c:	687b      	ldr	r3, [r7, #4]
 800166e:	681b      	ldr	r3, [r3, #0]
 8001670:	681a      	ldr	r2, [r3, #0]
 8001672:	687b      	ldr	r3, [r7, #4]
 8001674:	7c1b      	ldrb	r3, [r3, #16]
 8001676:	015b      	lsls	r3, r3, #5
 8001678:	4619      	mov	r1, r3
 800167a:	687b      	ldr	r3, [r7, #4]
 800167c:	681b      	ldr	r3, [r3, #0]
 800167e:	430a      	orrs	r2, r1
 8001680:	601a      	str	r2, [r3, #0]
	pTIMHandle->pTIMx->CR1 |= (pTIMHandle->TIM_Config.TIM_Direction << 4); //sets direction
 8001682:	687b      	ldr	r3, [r7, #4]
 8001684:	681b      	ldr	r3, [r3, #0]
 8001686:	681a      	ldr	r2, [r3, #0]
 8001688:	687b      	ldr	r3, [r7, #4]
 800168a:	7c5b      	ldrb	r3, [r3, #17]
 800168c:	011b      	lsls	r3, r3, #4
 800168e:	4619      	mov	r1, r3
 8001690:	687b      	ldr	r3, [r7, #4]
 8001692:	681b      	ldr	r3, [r3, #0]
 8001694:	430a      	orrs	r2, r1
 8001696:	601a      	str	r2, [r3, #0]
	pTIMHandle->pTIMx->CR1 |= (1 << 7); // ARR register is buffered
 8001698:	687b      	ldr	r3, [r7, #4]
 800169a:	681b      	ldr	r3, [r3, #0]
 800169c:	681a      	ldr	r2, [r3, #0]
 800169e:	687b      	ldr	r3, [r7, #4]
 80016a0:	681b      	ldr	r3, [r3, #0]
 80016a2:	f042 0280 	orr.w	r2, r2, #128	; 0x80
 80016a6:	601a      	str	r2, [r3, #0]

	//CCRM1
	if(pTIMHandle->TIM_Config.PWM_Channel == 1)
 80016a8:	687b      	ldr	r3, [r7, #4]
 80016aa:	7cdb      	ldrb	r3, [r3, #19]
 80016ac:	2b01      	cmp	r3, #1
 80016ae:	d113      	bne.n	80016d8 <PWM2_5_Init+0x80>
	{
		pTIMHandle->pTIMx->CCMR1 |= (pTIMHandle->TIM_Config.PWM_Mode << 4);  //pwm mode config
 80016b0:	687b      	ldr	r3, [r7, #4]
 80016b2:	681b      	ldr	r3, [r3, #0]
 80016b4:	699a      	ldr	r2, [r3, #24]
 80016b6:	687b      	ldr	r3, [r7, #4]
 80016b8:	7c9b      	ldrb	r3, [r3, #18]
 80016ba:	011b      	lsls	r3, r3, #4
 80016bc:	4619      	mov	r1, r3
 80016be:	687b      	ldr	r3, [r7, #4]
 80016c0:	681b      	ldr	r3, [r3, #0]
 80016c2:	430a      	orrs	r2, r1
 80016c4:	619a      	str	r2, [r3, #24]
		pTIMHandle->pTIMx->CCMR1 |= (1 << 3); //Preload register on TIMx_CCR1 enabled.
 80016c6:	687b      	ldr	r3, [r7, #4]
 80016c8:	681b      	ldr	r3, [r3, #0]
 80016ca:	699a      	ldr	r2, [r3, #24]
 80016cc:	687b      	ldr	r3, [r7, #4]
 80016ce:	681b      	ldr	r3, [r3, #0]
 80016d0:	f042 0208 	orr.w	r2, r2, #8
 80016d4:	619a      	str	r2, [r3, #24]
 80016d6:	e046      	b.n	8001766 <PWM2_5_Init+0x10e>
	}
	else if(pTIMHandle->TIM_Config.PWM_Channel == 2)
 80016d8:	687b      	ldr	r3, [r7, #4]
 80016da:	7cdb      	ldrb	r3, [r3, #19]
 80016dc:	2b02      	cmp	r3, #2
 80016de:	d113      	bne.n	8001708 <PWM2_5_Init+0xb0>
	{
		pTIMHandle->pTIMx->CCMR1 |= (pTIMHandle->TIM_Config.PWM_Mode << 12);  //pwm mode config
 80016e0:	687b      	ldr	r3, [r7, #4]
 80016e2:	681b      	ldr	r3, [r3, #0]
 80016e4:	699a      	ldr	r2, [r3, #24]
 80016e6:	687b      	ldr	r3, [r7, #4]
 80016e8:	7c9b      	ldrb	r3, [r3, #18]
 80016ea:	031b      	lsls	r3, r3, #12
 80016ec:	4619      	mov	r1, r3
 80016ee:	687b      	ldr	r3, [r7, #4]
 80016f0:	681b      	ldr	r3, [r3, #0]
 80016f2:	430a      	orrs	r2, r1
 80016f4:	619a      	str	r2, [r3, #24]
		pTIMHandle->pTIMx->CCMR1 |= (1 << 11); //Preload register on TIMx_CCR1 enabled.
 80016f6:	687b      	ldr	r3, [r7, #4]
 80016f8:	681b      	ldr	r3, [r3, #0]
 80016fa:	699a      	ldr	r2, [r3, #24]
 80016fc:	687b      	ldr	r3, [r7, #4]
 80016fe:	681b      	ldr	r3, [r3, #0]
 8001700:	f442 6200 	orr.w	r2, r2, #2048	; 0x800
 8001704:	619a      	str	r2, [r3, #24]
 8001706:	e02e      	b.n	8001766 <PWM2_5_Init+0x10e>
	}
	else if(pTIMHandle->TIM_Config.PWM_Channel == 3)
 8001708:	687b      	ldr	r3, [r7, #4]
 800170a:	7cdb      	ldrb	r3, [r3, #19]
 800170c:	2b03      	cmp	r3, #3
 800170e:	d113      	bne.n	8001738 <PWM2_5_Init+0xe0>
	{
		pTIMHandle->pTIMx->CCMR2 |= (pTIMHandle->TIM_Config.PWM_Mode << 4);  //pwm mode config
 8001710:	687b      	ldr	r3, [r7, #4]
 8001712:	681b      	ldr	r3, [r3, #0]
 8001714:	69da      	ldr	r2, [r3, #28]
 8001716:	687b      	ldr	r3, [r7, #4]
 8001718:	7c9b      	ldrb	r3, [r3, #18]
 800171a:	011b      	lsls	r3, r3, #4
 800171c:	4619      	mov	r1, r3
 800171e:	687b      	ldr	r3, [r7, #4]
 8001720:	681b      	ldr	r3, [r3, #0]
 8001722:	430a      	orrs	r2, r1
 8001724:	61da      	str	r2, [r3, #28]
		pTIMHandle->pTIMx->CCMR2 |= (1 << 3); //Preload register on TIMx_CCR1 enabled.
 8001726:	687b      	ldr	r3, [r7, #4]
 8001728:	681b      	ldr	r3, [r3, #0]
 800172a:	69da      	ldr	r2, [r3, #28]
 800172c:	687b      	ldr	r3, [r7, #4]
 800172e:	681b      	ldr	r3, [r3, #0]
 8001730:	f042 0208 	orr.w	r2, r2, #8
 8001734:	61da      	str	r2, [r3, #28]
 8001736:	e016      	b.n	8001766 <PWM2_5_Init+0x10e>
	}
	else if(pTIMHandle->TIM_Config.PWM_Channel == 4)
 8001738:	687b      	ldr	r3, [r7, #4]
 800173a:	7cdb      	ldrb	r3, [r3, #19]
 800173c:	2b04      	cmp	r3, #4
 800173e:	d112      	bne.n	8001766 <PWM2_5_Init+0x10e>
	{
		pTIMHandle->pTIMx->CCMR2 |= (pTIMHandle->TIM_Config.PWM_Mode << 12);  //pwm mode config
 8001740:	687b      	ldr	r3, [r7, #4]
 8001742:	681b      	ldr	r3, [r3, #0]
 8001744:	69da      	ldr	r2, [r3, #28]
 8001746:	687b      	ldr	r3, [r7, #4]
 8001748:	7c9b      	ldrb	r3, [r3, #18]
 800174a:	031b      	lsls	r3, r3, #12
 800174c:	4619      	mov	r1, r3
 800174e:	687b      	ldr	r3, [r7, #4]
 8001750:	681b      	ldr	r3, [r3, #0]
 8001752:	430a      	orrs	r2, r1
 8001754:	61da      	str	r2, [r3, #28]
		pTIMHandle->pTIMx->CCMR2 |= (1 << 11); //Preload register on TIMx_CCR1 enabled.
 8001756:	687b      	ldr	r3, [r7, #4]
 8001758:	681b      	ldr	r3, [r3, #0]
 800175a:	69da      	ldr	r2, [r3, #28]
 800175c:	687b      	ldr	r3, [r7, #4]
 800175e:	681b      	ldr	r3, [r3, #0]
 8001760:	f442 6200 	orr.w	r2, r2, #2048	; 0x800
 8001764:	61da      	str	r2, [r3, #28]
	}

	//CCER
	if(pTIMHandle->TIM_Config.PWM_Channel == 1)
 8001766:	687b      	ldr	r3, [r7, #4]
 8001768:	7cdb      	ldrb	r3, [r3, #19]
 800176a:	2b01      	cmp	r3, #1
 800176c:	d113      	bne.n	8001796 <PWM2_5_Init+0x13e>
	{
		pTIMHandle->pTIMx->CCER |= (pTIMHandle->TIM_Config.TIM_Polarity << 1);
 800176e:	687b      	ldr	r3, [r7, #4]
 8001770:	681b      	ldr	r3, [r3, #0]
 8001772:	6a1a      	ldr	r2, [r3, #32]
 8001774:	687b      	ldr	r3, [r7, #4]
 8001776:	7a9b      	ldrb	r3, [r3, #10]
 8001778:	005b      	lsls	r3, r3, #1
 800177a:	4619      	mov	r1, r3
 800177c:	687b      	ldr	r3, [r7, #4]
 800177e:	681b      	ldr	r3, [r3, #0]
 8001780:	430a      	orrs	r2, r1
 8001782:	621a      	str	r2, [r3, #32]
		pTIMHandle->pTIMx->CCER |= (1 << 0); //output enable
 8001784:	687b      	ldr	r3, [r7, #4]
 8001786:	681b      	ldr	r3, [r3, #0]
 8001788:	6a1a      	ldr	r2, [r3, #32]
 800178a:	687b      	ldr	r3, [r7, #4]
 800178c:	681b      	ldr	r3, [r3, #0]
 800178e:	f042 0201 	orr.w	r2, r2, #1
 8001792:	621a      	str	r2, [r3, #32]
 8001794:	e046      	b.n	8001824 <PWM2_5_Init+0x1cc>
	}
	else if(pTIMHandle->TIM_Config.PWM_Channel == 2)
 8001796:	687b      	ldr	r3, [r7, #4]
 8001798:	7cdb      	ldrb	r3, [r3, #19]
 800179a:	2b02      	cmp	r3, #2
 800179c:	d113      	bne.n	80017c6 <PWM2_5_Init+0x16e>
	{
		pTIMHandle->pTIMx->CCER |= (pTIMHandle->TIM_Config.TIM_Polarity << 5);
 800179e:	687b      	ldr	r3, [r7, #4]
 80017a0:	681b      	ldr	r3, [r3, #0]
 80017a2:	6a1a      	ldr	r2, [r3, #32]
 80017a4:	687b      	ldr	r3, [r7, #4]
 80017a6:	7a9b      	ldrb	r3, [r3, #10]
 80017a8:	015b      	lsls	r3, r3, #5
 80017aa:	4619      	mov	r1, r3
 80017ac:	687b      	ldr	r3, [r7, #4]
 80017ae:	681b      	ldr	r3, [r3, #0]
 80017b0:	430a      	orrs	r2, r1
 80017b2:	621a      	str	r2, [r3, #32]
		pTIMHandle->pTIMx->CCER |= (1 << 4); //output enable
 80017b4:	687b      	ldr	r3, [r7, #4]
 80017b6:	681b      	ldr	r3, [r3, #0]
 80017b8:	6a1a      	ldr	r2, [r3, #32]
 80017ba:	687b      	ldr	r3, [r7, #4]
 80017bc:	681b      	ldr	r3, [r3, #0]
 80017be:	f042 0210 	orr.w	r2, r2, #16
 80017c2:	621a      	str	r2, [r3, #32]
 80017c4:	e02e      	b.n	8001824 <PWM2_5_Init+0x1cc>
	}
	else if(pTIMHandle->TIM_Config.PWM_Channel == 3)
 80017c6:	687b      	ldr	r3, [r7, #4]
 80017c8:	7cdb      	ldrb	r3, [r3, #19]
 80017ca:	2b03      	cmp	r3, #3
 80017cc:	d113      	bne.n	80017f6 <PWM2_5_Init+0x19e>
	{
		pTIMHandle->pTIMx->CCER |= (pTIMHandle->TIM_Config.TIM_Polarity << 9);
 80017ce:	687b      	ldr	r3, [r7, #4]
 80017d0:	681b      	ldr	r3, [r3, #0]
 80017d2:	6a1a      	ldr	r2, [r3, #32]
 80017d4:	687b      	ldr	r3, [r7, #4]
 80017d6:	7a9b      	ldrb	r3, [r3, #10]
 80017d8:	025b      	lsls	r3, r3, #9
 80017da:	4619      	mov	r1, r3
 80017dc:	687b      	ldr	r3, [r7, #4]
 80017de:	681b      	ldr	r3, [r3, #0]
 80017e0:	430a      	orrs	r2, r1
 80017e2:	621a      	str	r2, [r3, #32]
		pTIMHandle->pTIMx->CCER |= (1 << 8); //output enable
 80017e4:	687b      	ldr	r3, [r7, #4]
 80017e6:	681b      	ldr	r3, [r3, #0]
 80017e8:	6a1a      	ldr	r2, [r3, #32]
 80017ea:	687b      	ldr	r3, [r7, #4]
 80017ec:	681b      	ldr	r3, [r3, #0]
 80017ee:	f442 7280 	orr.w	r2, r2, #256	; 0x100
 80017f2:	621a      	str	r2, [r3, #32]
 80017f4:	e016      	b.n	8001824 <PWM2_5_Init+0x1cc>
	}
	else if(pTIMHandle->TIM_Config.PWM_Channel == 4)
 80017f6:	687b      	ldr	r3, [r7, #4]
 80017f8:	7cdb      	ldrb	r3, [r3, #19]
 80017fa:	2b04      	cmp	r3, #4
 80017fc:	d112      	bne.n	8001824 <PWM2_5_Init+0x1cc>
	{
		pTIMHandle->pTIMx->CCER |= (pTIMHandle->TIM_Config.TIM_Polarity << 13);
 80017fe:	687b      	ldr	r3, [r7, #4]
 8001800:	681b      	ldr	r3, [r3, #0]
 8001802:	6a1a      	ldr	r2, [r3, #32]
 8001804:	687b      	ldr	r3, [r7, #4]
 8001806:	7a9b      	ldrb	r3, [r3, #10]
 8001808:	035b      	lsls	r3, r3, #13
 800180a:	4619      	mov	r1, r3
 800180c:	687b      	ldr	r3, [r7, #4]
 800180e:	681b      	ldr	r3, [r3, #0]
 8001810:	430a      	orrs	r2, r1
 8001812:	621a      	str	r2, [r3, #32]
		pTIMHandle->pTIMx->CCER |= (1 << 12); //output enable
 8001814:	687b      	ldr	r3, [r7, #4]
 8001816:	681b      	ldr	r3, [r3, #0]
 8001818:	6a1a      	ldr	r2, [r3, #32]
 800181a:	687b      	ldr	r3, [r7, #4]
 800181c:	681b      	ldr	r3, [r3, #0]
 800181e:	f442 5280 	orr.w	r2, r2, #4096	; 0x1000
 8001822:	621a      	str	r2, [r3, #32]
	}

	//Prescelar setting and ARR
	pTIMHandle->pTIMx->PSC = pTIMHandle->TIM_Config.TIM_Prescaler;
 8001824:	687b      	ldr	r3, [r7, #4]
 8001826:	891a      	ldrh	r2, [r3, #8]
 8001828:	687b      	ldr	r3, [r7, #4]
 800182a:	681b      	ldr	r3, [r3, #0]
 800182c:	629a      	str	r2, [r3, #40]	; 0x28
	pTIMHandle->pTIMx->ARR = pTIMHandle->TIM_Config.TIM_ARR;
 800182e:	687b      	ldr	r3, [r7, #4]
 8001830:	681b      	ldr	r3, [r3, #0]
 8001832:	687a      	ldr	r2, [r7, #4]
 8001834:	6852      	ldr	r2, [r2, #4]
 8001836:	62da      	str	r2, [r3, #44]	; 0x2c


	//Rest postion of motor
	if(pTIMHandle->TIM_Config.TIM_RestPostion > 0)
 8001838:	687b      	ldr	r3, [r7, #4]
 800183a:	68db      	ldr	r3, [r3, #12]
 800183c:	2b00      	cmp	r3, #0
 800183e:	d026      	beq.n	800188e <PWM2_5_Init+0x236>
	{
		if(pTIMHandle->TIM_Config.PWM_Channel == 1)
 8001840:	687b      	ldr	r3, [r7, #4]
 8001842:	7cdb      	ldrb	r3, [r3, #19]
 8001844:	2b01      	cmp	r3, #1
 8001846:	d105      	bne.n	8001854 <PWM2_5_Init+0x1fc>
		{
			pTIMHandle->pTIMx->CCR1 = pTIMHandle->TIM_Config.TIM_RestPostion;
 8001848:	687b      	ldr	r3, [r7, #4]
 800184a:	681b      	ldr	r3, [r3, #0]
 800184c:	687a      	ldr	r2, [r7, #4]
 800184e:	68d2      	ldr	r2, [r2, #12]
 8001850:	635a      	str	r2, [r3, #52]	; 0x34
 8001852:	e01c      	b.n	800188e <PWM2_5_Init+0x236>
		}
		else if(pTIMHandle->TIM_Config.PWM_Channel == 2)
 8001854:	687b      	ldr	r3, [r7, #4]
 8001856:	7cdb      	ldrb	r3, [r3, #19]
 8001858:	2b02      	cmp	r3, #2
 800185a:	d105      	bne.n	8001868 <PWM2_5_Init+0x210>
		{
			pTIMHandle->pTIMx->CCR2 = pTIMHandle->TIM_Config.TIM_RestPostion;
 800185c:	687b      	ldr	r3, [r7, #4]
 800185e:	681b      	ldr	r3, [r3, #0]
 8001860:	687a      	ldr	r2, [r7, #4]
 8001862:	68d2      	ldr	r2, [r2, #12]
 8001864:	639a      	str	r2, [r3, #56]	; 0x38
 8001866:	e012      	b.n	800188e <PWM2_5_Init+0x236>
		}
		else if(pTIMHandle->TIM_Config.PWM_Channel == 3)
 8001868:	687b      	ldr	r3, [r7, #4]
 800186a:	7cdb      	ldrb	r3, [r3, #19]
 800186c:	2b03      	cmp	r3, #3
 800186e:	d105      	bne.n	800187c <PWM2_5_Init+0x224>
		{
			pTIMHandle->pTIMx->CCR3 = pTIMHandle->TIM_Config.TIM_RestPostion;
 8001870:	687b      	ldr	r3, [r7, #4]
 8001872:	681b      	ldr	r3, [r3, #0]
 8001874:	687a      	ldr	r2, [r7, #4]
 8001876:	68d2      	ldr	r2, [r2, #12]
 8001878:	63da      	str	r2, [r3, #60]	; 0x3c
 800187a:	e008      	b.n	800188e <PWM2_5_Init+0x236>
		}
		else if(pTIMHandle->TIM_Config.PWM_Channel == 4)
 800187c:	687b      	ldr	r3, [r7, #4]
 800187e:	7cdb      	ldrb	r3, [r3, #19]
 8001880:	2b04      	cmp	r3, #4
 8001882:	d104      	bne.n	800188e <PWM2_5_Init+0x236>
		{
			pTIMHandle->pTIMx->CCR4 = pTIMHandle->TIM_Config.TIM_RestPostion;
 8001884:	687b      	ldr	r3, [r7, #4]
 8001886:	681b      	ldr	r3, [r3, #0]
 8001888:	687a      	ldr	r2, [r7, #4]
 800188a:	68d2      	ldr	r2, [r2, #12]
 800188c:	641a      	str	r2, [r3, #64]	; 0x40
		}
	}
	pTIMHandle->pTIMx->EGR |= (1 << 0);//enables the UG bit
 800188e:	687b      	ldr	r3, [r7, #4]
 8001890:	681b      	ldr	r3, [r3, #0]
 8001892:	695a      	ldr	r2, [r3, #20]
 8001894:	687b      	ldr	r3, [r7, #4]
 8001896:	681b      	ldr	r3, [r3, #0]
 8001898:	f042 0201 	orr.w	r2, r2, #1
 800189c:	615a      	str	r2, [r3, #20]

	pTIMHandle->pTIMx->CR1 |= (1 << 0); //enables the Counter
 800189e:	687b      	ldr	r3, [r7, #4]
 80018a0:	681b      	ldr	r3, [r3, #0]
 80018a2:	681a      	ldr	r2, [r3, #0]
 80018a4:	687b      	ldr	r3, [r7, #4]
 80018a6:	681b      	ldr	r3, [r3, #0]
 80018a8:	f042 0201 	orr.w	r2, r2, #1
 80018ac:	601a      	str	r2, [r3, #0]

}
 80018ae:	bf00      	nop
 80018b0:	370c      	adds	r7, #12
 80018b2:	46bd      	mov	sp, r7
 80018b4:	bc80      	pop	{r7}
 80018b6:	4770      	bx	lr

080018b8 <ServoAngle>:

void ServoAngle(TIM2_5_RegDef_t *pTIMx, uint32_t Angle, uint8_t Channel)
{
 80018b8:	b580      	push	{r7, lr}
 80018ba:	b086      	sub	sp, #24
 80018bc:	af00      	add	r7, sp, #0
 80018be:	60f8      	str	r0, [r7, #12]
 80018c0:	60b9      	str	r1, [r7, #8]
 80018c2:	4613      	mov	r3, r2
 80018c4:	71fb      	strb	r3, [r7, #7]
	uint32_t DutyCycle = (Angle*1.188)+77;
 80018c6:	68b8      	ldr	r0, [r7, #8]
 80018c8:	f7fe fefa 	bl	80006c0 <__aeabi_ui2d>
 80018cc:	a31a      	add	r3, pc, #104	; (adr r3, 8001938 <ServoAngle+0x80>)
 80018ce:	e9d3 2300 	ldrd	r2, r3, [r3]
 80018d2:	f7fe fc89 	bl	80001e8 <__aeabi_dmul>
 80018d6:	4602      	mov	r2, r0
 80018d8:	460b      	mov	r3, r1
 80018da:	4610      	mov	r0, r2
 80018dc:	4619      	mov	r1, r3
 80018de:	f04f 0200 	mov.w	r2, #0
 80018e2:	4b17      	ldr	r3, [pc, #92]	; (8001940 <ServoAngle+0x88>)
 80018e4:	f7fe fdb0 	bl	8000448 <__adddf3>
 80018e8:	4602      	mov	r2, r0
 80018ea:	460b      	mov	r3, r1
 80018ec:	4610      	mov	r0, r2
 80018ee:	4619      	mov	r1, r3
 80018f0:	f7fe ff60 	bl	80007b4 <__aeabi_d2uiz>
 80018f4:	4603      	mov	r3, r0
 80018f6:	617b      	str	r3, [r7, #20]
	if(Channel == 1)
 80018f8:	79fb      	ldrb	r3, [r7, #7]
 80018fa:	2b01      	cmp	r3, #1
 80018fc:	d103      	bne.n	8001906 <ServoAngle+0x4e>
	{
		pTIMx->CCR1 = DutyCycle;
 80018fe:	68fb      	ldr	r3, [r7, #12]
 8001900:	697a      	ldr	r2, [r7, #20]
 8001902:	635a      	str	r2, [r3, #52]	; 0x34
	else if(Channel == 4)
	{
		pTIMx->CCR4 = DutyCycle;
	}

}
 8001904:	e013      	b.n	800192e <ServoAngle+0x76>
	else if(Channel == 2)
 8001906:	79fb      	ldrb	r3, [r7, #7]
 8001908:	2b02      	cmp	r3, #2
 800190a:	d103      	bne.n	8001914 <ServoAngle+0x5c>
		pTIMx->CCR2 = DutyCycle;
 800190c:	68fb      	ldr	r3, [r7, #12]
 800190e:	697a      	ldr	r2, [r7, #20]
 8001910:	639a      	str	r2, [r3, #56]	; 0x38
}
 8001912:	e00c      	b.n	800192e <ServoAngle+0x76>
	else if(Channel == 3)
 8001914:	79fb      	ldrb	r3, [r7, #7]
 8001916:	2b03      	cmp	r3, #3
 8001918:	d103      	bne.n	8001922 <ServoAngle+0x6a>
		pTIMx->CCR3 = DutyCycle;
 800191a:	68fb      	ldr	r3, [r7, #12]
 800191c:	697a      	ldr	r2, [r7, #20]
 800191e:	63da      	str	r2, [r3, #60]	; 0x3c
}
 8001920:	e005      	b.n	800192e <ServoAngle+0x76>
	else if(Channel == 4)
 8001922:	79fb      	ldrb	r3, [r7, #7]
 8001924:	2b04      	cmp	r3, #4
 8001926:	d102      	bne.n	800192e <ServoAngle+0x76>
		pTIMx->CCR4 = DutyCycle;
 8001928:	68fb      	ldr	r3, [r7, #12]
 800192a:	697a      	ldr	r2, [r7, #20]
 800192c:	641a      	str	r2, [r3, #64]	; 0x40
}
 800192e:	bf00      	nop
 8001930:	3718      	adds	r7, #24
 8001932:	46bd      	mov	sp, r7
 8001934:	bd80      	pop	{r7, pc}
 8001936:	bf00      	nop
 8001938:	49ba5e35 	.word	0x49ba5e35
 800193c:	3ff3020c 	.word	0x3ff3020c
 8001940:	40534000 	.word	0x40534000

08001944 <__libc_init_array>:
 8001944:	b570      	push	{r4, r5, r6, lr}
 8001946:	4d0d      	ldr	r5, [pc, #52]	; (800197c <__libc_init_array+0x38>)
 8001948:	4c0d      	ldr	r4, [pc, #52]	; (8001980 <__libc_init_array+0x3c>)
 800194a:	1b64      	subs	r4, r4, r5
 800194c:	10a4      	asrs	r4, r4, #2
 800194e:	2600      	movs	r6, #0
 8001950:	42a6      	cmp	r6, r4
 8001952:	d109      	bne.n	8001968 <__libc_init_array+0x24>
 8001954:	4d0b      	ldr	r5, [pc, #44]	; (8001984 <__libc_init_array+0x40>)
 8001956:	4c0c      	ldr	r4, [pc, #48]	; (8001988 <__libc_init_array+0x44>)
 8001958:	f000 f818 	bl	800198c <_init>
 800195c:	1b64      	subs	r4, r4, r5
 800195e:	10a4      	asrs	r4, r4, #2
 8001960:	2600      	movs	r6, #0
 8001962:	42a6      	cmp	r6, r4
 8001964:	d105      	bne.n	8001972 <__libc_init_array+0x2e>
 8001966:	bd70      	pop	{r4, r5, r6, pc}
 8001968:	f855 3b04 	ldr.w	r3, [r5], #4
 800196c:	4798      	blx	r3
 800196e:	3601      	adds	r6, #1
 8001970:	e7ee      	b.n	8001950 <__libc_init_array+0xc>
 8001972:	f855 3b04 	ldr.w	r3, [r5], #4
 8001976:	4798      	blx	r3
 8001978:	3601      	adds	r6, #1
 800197a:	e7f2      	b.n	8001962 <__libc_init_array+0x1e>
 800197c:	080019a4 	.word	0x080019a4
 8001980:	080019a4 	.word	0x080019a4
 8001984:	080019a4 	.word	0x080019a4
 8001988:	080019a8 	.word	0x080019a8

0800198c <_init>:
 800198c:	b5f8      	push	{r3, r4, r5, r6, r7, lr}
 800198e:	bf00      	nop
 8001990:	bcf8      	pop	{r3, r4, r5, r6, r7}
 8001992:	bc08      	pop	{r3}
 8001994:	469e      	mov	lr, r3
 8001996:	4770      	bx	lr

08001998 <_fini>:
 8001998:	b5f8      	push	{r3, r4, r5, r6, r7, lr}
 800199a:	bf00      	nop
 800199c:	bcf8      	pop	{r3, r4, r5, r6, r7}
 800199e:	bc08      	pop	{r3}
 80019a0:	469e      	mov	lr, r3
 80019a2:	4770      	bx	lr
